   1               		.file	"zombiedash.c"
   2               	__SREG__ = 0x3f
   3               	__SP_H__ = 0x3e
   4               	__SP_L__ = 0x3d
   5               	__CCP__  = 0x34
   6               	__tmp_reg__ = 0
   7               	__zero_reg__ = 1
  15               	.Ltext0:
  16               		.section	.text.TimerInit,"ax",@progbits
  17               	.global	TimerInit
  19               	TimerInit:
  20               	.LFB10:
  21               	.LSM0:
  22               	/* prologue: function */
  23               	/* frame size = 0 */
  24               	.LSM1:
  25 0000 84B5      		in r24,68-32
  26 0002 8D7F      		andi r24,lo8(-3)
  27 0004 84BD      		out 68-32,r24
  28               	.LSM2:
  29 0006 85B5      		in r24,69-32
  30 0008 877F      		andi r24,lo8(-9)
  31 000a 85BD      		out 69-32,r24
  32               	.LSM3:
  33 000c 85B5      		in r24,69-32
  34 000e 8560      		ori r24,lo8(5)
  35 0010 85BD      		out 69-32,r24
  36               	.LSM4:
  37 0012 85B5      		in r24,69-32
  38 0014 8D7F      		andi r24,lo8(-3)
  39 0016 85BD      		out 69-32,r24
  40               	.LSM5:
  41 0018 EEE6      		ldi r30,lo8(110)
  42 001a F0E0      		ldi r31,hi8(110)
  43 001c 8081      		ld r24,Z
  44 001e 8160      		ori r24,lo8(1)
  45 0020 8083      		st Z,r24
  46               	.LSM6:
  47               	/* #APP */
  48               	 ;  206 "zombiedash.c" 1
  49 0022 7894      		sei
  50               	 ;  0 "" 2
  51               	/* epilogue start */
  52               	.LSM7:
  53               	/* #NOAPP */
  54 0024 0895      		ret
  55               	.LFE10:
  57               		.section	.text.PinChangeInit,"ax",@progbits
  58               	.global	PinChangeInit
  60               	PinChangeInit:
  61               	.LFB11:
  62               	.LSM8:
  63               	/* prologue: function */
  64               	/* frame size = 0 */
  65               	.LSM9:
  66 0000 EBE6      		ldi r30,lo8(107)
  67 0002 F0E0      		ldi r31,hi8(107)
  68 0004 8081      		ld r24,Z
  69 0006 8160      		ori r24,lo8(1)
  70 0008 8083      		st Z,r24
  71               	.LSM10:
  72 000a 8081      		ld r24,Z
  73 000c 8260      		ori r24,lo8(2)
  74 000e 8083      		st Z,r24
  75               	.LSM11:
  76 0010 E8E6      		ldi r30,lo8(104)
  77 0012 F0E0      		ldi r31,hi8(104)
  78 0014 8081      		ld r24,Z
  79 0016 8160      		ori r24,lo8(1)
  80 0018 8083      		st Z,r24
  81               	.LSM12:
  82 001a E9E6      		ldi r30,lo8(105)
  83 001c F0E0      		ldi r31,hi8(105)
  84 001e 8081      		ld r24,Z
  85 0020 8160      		ori r24,lo8(1)
  86 0022 8083      		st Z,r24
  87               	.LSM13:
  88               	/* #APP */
  89               	 ;  222 "zombiedash.c" 1
  90 0024 7894      		sei
  91               	 ;  0 "" 2
  92               	/* epilogue start */
  93               	.LSM14:
  94               	/* #NOAPP */
  95 0026 0895      		ret
  96               	.LFE11:
  98               		.section	.text.update_sprite,"ax",@progbits
  99               	.global	update_sprite
 101               	update_sprite:
 102               	.LFB12:
 103               	.LSM15:
 104               	.LVL0:
 105 0000 EF92      		push r14
 106 0002 FF92      		push r15
 107 0004 0F93      		push r16
 108 0006 1F93      		push r17
 109 0008 CF93      		push r28
 110 000a DF93      		push r29
 111               	/* prologue: function */
 112               	/* frame size = 0 */
 113 000c EC01      		movw r28,r24
 114               	.LSM16:
 115 000e 6881      		ld r22,Y
 116 0010 7981      		ldd r23,Y+1
 117 0012 8A81      		ldd r24,Y+2
 118 0014 9B81      		ldd r25,Y+3
 119 0016 2D85      		ldd r18,Y+13
 120 0018 3E85      		ldd r19,Y+14
 121 001a 4F85      		ldd r20,Y+15
 122 001c 5889      		ldd r21,Y+16
 123 001e 0E94 0000 		call __addsf3
 124               	.LVL1:
 125 0022 7B01      		movw r14,r22
 126 0024 8C01      		movw r16,r24
 127 0026 6883      		st Y,r22
 128 0028 7983      		std Y+1,r23
 129 002a 8A83      		std Y+2,r24
 130 002c 9B83      		std Y+3,r25
 131               	.LSM17:
 132 002e 6C81      		ldd r22,Y+4
 133 0030 7D81      		ldd r23,Y+5
 134 0032 8E81      		ldd r24,Y+6
 135 0034 9F81      		ldd r25,Y+7
 136 0036 2989      		ldd r18,Y+17
 137 0038 3A89      		ldd r19,Y+18
 138 003a 4B89      		ldd r20,Y+19
 139 003c 5C89      		ldd r21,Y+20
 140 003e 0E94 0000 		call __addsf3
 141 0042 6C83      		std Y+4,r22
 142 0044 7D83      		std Y+5,r23
 143 0046 8E83      		std Y+6,r24
 144 0048 9F83      		std Y+7,r25
 145               	.LSM18:
 146 004a 2885      		ldd r18,Y+8
 147 004c 64E5      		ldi r22,lo8(84)
 148 004e 70E0      		ldi r23,hi8(84)
 149 0050 621B      		sub r22,r18
 150 0052 7109      		sbc r23,__zero_reg__
 151 0054 8827      		clr r24
 152 0056 77FD      		sbrc r23,7
 153 0058 8095      		com r24
 154 005a 982F      		mov r25,r24
 155 005c 0E94 0000 		call __floatsisf
 156 0060 9B01      		movw r18,r22
 157 0062 AC01      		movw r20,r24
 158 0064 C801      		movw r24,r16
 159 0066 B701      		movw r22,r14
 160 0068 0E94 0000 		call __gesf2
 161 006c 8823      		tst r24
 162 006e 04F0      		brlt .L6
 163               	.LSM19:
 164 0070 C801      		movw r24,r16
 165 0072 B701      		movw r22,r14
 166 0074 20E0      		ldi r18,lo8(0x3f800000)
 167 0076 30E0      		ldi r19,hi8(0x3f800000)
 168 0078 40E8      		ldi r20,hlo8(0x3f800000)
 169 007a 5FE3      		ldi r21,hhi8(0x3f800000)
 170 007c 0E94 0000 		call __subsf3
 171 0080 6883      		st Y,r22
 172 0082 7983      		std Y+1,r23
 173 0084 8A83      		std Y+2,r24
 174 0086 9B83      		std Y+3,r25
 175               	.L6:
 176               	.LSM20:
 177 0088 E880      		ld r14,Y
 178 008a F980      		ldd r15,Y+1
 179 008c 0A81      		ldd r16,Y+2
 180 008e 1B81      		ldd r17,Y+3
 181 0090 C801      		movw r24,r16
 182 0092 B701      		movw r22,r14
 183 0094 20E0      		ldi r18,lo8(0x41700000)
 184 0096 30E0      		ldi r19,hi8(0x41700000)
 185 0098 40E7      		ldi r20,hlo8(0x41700000)
 186 009a 51E4      		ldi r21,hhi8(0x41700000)
 187 009c 0E94 0000 		call __ltsf2
 188 00a0 8823      		tst r24
 189 00a2 04F4      		brge .L8
 190               	.LSM21:
 191 00a4 C801      		movw r24,r16
 192 00a6 B701      		movw r22,r14
 193 00a8 20E0      		ldi r18,lo8(0x3f800000)
 194 00aa 30E0      		ldi r19,hi8(0x3f800000)
 195 00ac 40E8      		ldi r20,hlo8(0x3f800000)
 196 00ae 5FE3      		ldi r21,hhi8(0x3f800000)
 197 00b0 0E94 0000 		call __addsf3
 198 00b4 6883      		st Y,r22
 199 00b6 7983      		std Y+1,r23
 200 00b8 8A83      		std Y+2,r24
 201 00ba 9B83      		std Y+3,r25
 202               	.L8:
 203               	.LSM22:
 204 00bc EC80      		ldd r14,Y+4
 205 00be FD80      		ldd r15,Y+5
 206 00c0 0E81      		ldd r16,Y+6
 207 00c2 1F81      		ldd r17,Y+7
 208 00c4 2985      		ldd r18,Y+9
 209 00c6 60E3      		ldi r22,lo8(48)
 210 00c8 70E0      		ldi r23,hi8(48)
 211 00ca 621B      		sub r22,r18
 212 00cc 7109      		sbc r23,__zero_reg__
 213 00ce 8827      		clr r24
 214 00d0 77FD      		sbrc r23,7
 215 00d2 8095      		com r24
 216 00d4 982F      		mov r25,r24
 217 00d6 0E94 0000 		call __floatsisf
 218 00da 9B01      		movw r18,r22
 219 00dc AC01      		movw r20,r24
 220 00de C801      		movw r24,r16
 221 00e0 B701      		movw r22,r14
 222 00e2 0E94 0000 		call __gesf2
 223 00e6 8823      		tst r24
 224 00e8 04F0      		brlt .L10
 225               	.LSM23:
 226 00ea C801      		movw r24,r16
 227 00ec B701      		movw r22,r14
 228 00ee 20E0      		ldi r18,lo8(0x3f800000)
 229 00f0 30E0      		ldi r19,hi8(0x3f800000)
 230 00f2 40E8      		ldi r20,hlo8(0x3f800000)
 231 00f4 5FE3      		ldi r21,hhi8(0x3f800000)
 232 00f6 0E94 0000 		call __subsf3
 233 00fa 6C83      		std Y+4,r22
 234 00fc 7D83      		std Y+5,r23
 235 00fe 8E83      		std Y+6,r24
 236 0100 9F83      		std Y+7,r25
 237               	.L10:
 238               	.LSM24:
 239 0102 EC80      		ldd r14,Y+4
 240 0104 FD80      		ldd r15,Y+5
 241 0106 0E81      		ldd r16,Y+6
 242 0108 1F81      		ldd r17,Y+7
 243 010a C801      		movw r24,r16
 244 010c B701      		movw r22,r14
 245 010e 20E0      		ldi r18,lo8(0x0)
 246 0110 30E0      		ldi r19,hi8(0x0)
 247 0112 40E0      		ldi r20,hlo8(0x0)
 248 0114 50E0      		ldi r21,hhi8(0x0)
 249 0116 0E94 0000 		call __ltsf2
 250 011a 8823      		tst r24
 251 011c 04F4      		brge .L12
 252               	.LSM25:
 253 011e C801      		movw r24,r16
 254 0120 B701      		movw r22,r14
 255 0122 20E0      		ldi r18,lo8(0x3f800000)
 256 0124 30E0      		ldi r19,hi8(0x3f800000)
 257 0126 40E8      		ldi r20,hlo8(0x3f800000)
 258 0128 5FE3      		ldi r21,hhi8(0x3f800000)
 259 012a 0E94 0000 		call __addsf3
 260 012e 6C83      		std Y+4,r22
 261 0130 7D83      		std Y+5,r23
 262 0132 8E83      		std Y+6,r24
 263 0134 9F83      		std Y+7,r25
 264               	.L12:
 265               	.LSM26:
 266 0136 6881      		ld r22,Y
 267 0138 7981      		ldd r23,Y+1
 268 013a 8A81      		ldd r24,Y+2
 269 013c 9B81      		ldd r25,Y+3
 270 013e 20E0      		ldi r18,lo8(0xbf800000)
 271 0140 30E0      		ldi r19,hi8(0xbf800000)
 272 0142 40E8      		ldi r20,hlo8(0xbf800000)
 273 0144 5FEB      		ldi r21,hhi8(0xbf800000)
 274 0146 0E94 0000 		call __lesf2
 275 014a 1816      		cp __zero_reg__,r24
 276 014c 04F0      		brlt .L14
 277               	.LSM27:
 278 014e 80E0      		ldi r24,lo8(0xc2480000)
 279 0150 90E0      		ldi r25,hi8(0xc2480000)
 280 0152 A8E4      		ldi r26,hlo8(0xc2480000)
 281 0154 B2EC      		ldi r27,hhi8(0xc2480000)
 282 0156 8883      		st Y,r24
 283 0158 9983      		std Y+1,r25
 284 015a AA83      		std Y+2,r26
 285 015c BB83      		std Y+3,r27
 286               	.L14:
 287               	.LSM28:
 288 015e 6C81      		ldd r22,Y+4
 289 0160 7D81      		ldd r23,Y+5
 290 0162 8E81      		ldd r24,Y+6
 291 0164 9F81      		ldd r25,Y+7
 292 0166 20E0      		ldi r18,lo8(0xbf800000)
 293 0168 30E0      		ldi r19,hi8(0xbf800000)
 294 016a 40E8      		ldi r20,hlo8(0xbf800000)
 295 016c 5FEB      		ldi r21,hhi8(0xbf800000)
 296 016e 0E94 0000 		call __lesf2
 297 0172 1816      		cp __zero_reg__,r24
 298 0174 04F0      		brlt .L18
 299               	.LSM29:
 300 0176 80E0      		ldi r24,lo8(0xc2480000)
 301 0178 90E0      		ldi r25,hi8(0xc2480000)
 302 017a A8E4      		ldi r26,hlo8(0xc2480000)
 303 017c B2EC      		ldi r27,hhi8(0xc2480000)
 304 017e 8C83      		std Y+4,r24
 305 0180 9D83      		std Y+5,r25
 306 0182 AE83      		std Y+6,r26
 307 0184 BF83      		std Y+7,r27
 308               	.L18:
 309               	/* epilogue start */
 310               	.LSM30:
 311 0186 DF91      		pop r29
 312 0188 CF91      		pop r28
 313               	.LVL2:
 314 018a 1F91      		pop r17
 315 018c 0F91      		pop r16
 316 018e FF90      		pop r15
 317 0190 EF90      		pop r14
 318 0192 0895      		ret
 319               	.LFE12:
 321               		.section	.text.stage_collision,"ax",@progbits
 322               	.global	stage_collision
 324               	stage_collision:
 325               	.LFB13:
 326               	.LSM31:
 327               	.LVL3:
 328 0000 AF92      		push r10
 329 0002 BF92      		push r11
 330 0004 CF92      		push r12
 331 0006 DF92      		push r13
 332 0008 EF92      		push r14
 333 000a FF92      		push r15
 334 000c 0F93      		push r16
 335 000e 1F93      		push r17
 336 0010 CF93      		push r28
 337 0012 DF93      		push r29
 338               	/* prologue: function */
 339               	/* frame size = 0 */
 340 0014 EC01      		movw r28,r24
 341               	.LSM32:
 342 0016 AC80      		ldd r10,Y+4
 343 0018 BD80      		ldd r11,Y+5
 344 001a CE80      		ldd r12,Y+6
 345 001c DF80      		ldd r13,Y+7
 346 001e E090 0000 		lds r14,border1+4
 347 0022 F090 0000 		lds r15,(border1+4)+1
 348 0026 0091 0000 		lds r16,(border1+4)+2
 349 002a 1091 0000 		lds r17,(border1+4)+3
 350 002e C601      		movw r24,r12
 351 0030 B501      		movw r22,r10
 352 0032 20E0      		ldi r18,lo8(0x3f800000)
 353 0034 30E0      		ldi r19,hi8(0x3f800000)
 354 0036 40E8      		ldi r20,hlo8(0x3f800000)
 355 0038 5FE3      		ldi r21,hhi8(0x3f800000)
 356 003a 0E94 0000 		call __addsf3
 357               	.LVL4:
 358 003e A801      		movw r20,r16
 359 0040 9701      		movw r18,r14
 360 0042 0E94 0000 		call __eqsf2
 361 0046 8823      		tst r24
 362 0048 01F0      		breq .+2
 363 004a 00C0      		rjmp .L26
 364               	.LSM33:
 365 004c E880      		ld r14,Y
 366 004e F980      		ldd r15,Y+1
 367 0050 0A81      		ldd r16,Y+2
 368 0052 1B81      		ldd r17,Y+3
 369 0054 2091 0000 		lds r18,border1
 370 0058 3091 0000 		lds r19,(border1)+1
 371 005c 4091 0000 		lds r20,(border1)+2
 372 0060 5091 0000 		lds r21,(border1)+3
 373 0064 C801      		movw r24,r16
 374 0066 B701      		movw r22,r14
 375 0068 0E94 0000 		call __gesf2
 376 006c 8823      		tst r24
 377 006e 04F0      		brlt .L26
 378 0070 2091 0000 		lds r18,border1+8
 379 0074 3091 0000 		lds r19,(border1+8)+1
 380 0078 4091 0000 		lds r20,(border1+8)+2
 381 007c 5091 0000 		lds r21,(border1+8)+3
 382 0080 C801      		movw r24,r16
 383 0082 B701      		movw r22,r14
 384 0084 0E94 0000 		call __lesf2
 385 0088 1816      		cp __zero_reg__,r24
 386 008a 04F0      		brlt .L26
 387               	.LSM34:
 388 008c E988      		ldd r14,Y+17
 389 008e FA88      		ldd r15,Y+18
 390 0090 0B89      		ldd r16,Y+19
 391 0092 1C89      		ldd r17,Y+20
 392 0094 C801      		movw r24,r16
 393 0096 B701      		movw r22,r14
 394 0098 20E0      		ldi r18,lo8(0x0)
 395 009a 30E0      		ldi r19,hi8(0x0)
 396 009c 40E0      		ldi r20,hlo8(0x0)
 397 009e 50E0      		ldi r21,hhi8(0x0)
 398 00a0 0E94 0000 		call __gtsf2
 399 00a4 1816      		cp __zero_reg__,r24
 400 00a6 04F0      		brlt .L131
 401               	.L123:
 402               	.LSM35:
 403 00a8 C801      		movw r24,r16
 404 00aa B701      		movw r22,r14
 405 00ac 20E0      		ldi r18,lo8(0x0)
 406 00ae 30E0      		ldi r19,hi8(0x0)
 407 00b0 40E0      		ldi r20,hlo8(0x0)
 408 00b2 50E0      		ldi r21,hhi8(0x0)
 409 00b4 0E94 0000 		call __ltsf2
 410 00b8 8823      		tst r24
 411 00ba 04F4      		brge .L26
 412               	.L131:
 413               	.LSM36:
 414 00bc C601      		movw r24,r12
 415 00be B501      		movw r22,r10
 416 00c0 A801      		movw r20,r16
 417 00c2 9701      		movw r18,r14
 418 00c4 0E94 0000 		call __subsf3
 419 00c8 6C83      		std Y+4,r22
 420 00ca 7D83      		std Y+5,r23
 421 00cc 8E83      		std Y+6,r24
 422 00ce 9F83      		std Y+7,r25
 423               	.L26:
 424               	.LSM37:
 425 00d0 A880      		ld r10,Y
 426 00d2 B980      		ldd r11,Y+1
 427 00d4 CA80      		ldd r12,Y+2
 428 00d6 DB80      		ldd r13,Y+3
 429 00d8 E090 0000 		lds r14,border2
 430 00dc F090 0000 		lds r15,(border2)+1
 431 00e0 0091 0000 		lds r16,(border2)+2
 432 00e4 1091 0000 		lds r17,(border2)+3
 433 00e8 C601      		movw r24,r12
 434 00ea B501      		movw r22,r10
 435 00ec 20E0      		ldi r18,lo8(0x3f800000)
 436 00ee 30E0      		ldi r19,hi8(0x3f800000)
 437 00f0 40E8      		ldi r20,hlo8(0x3f800000)
 438 00f2 5FE3      		ldi r21,hhi8(0x3f800000)
 439 00f4 0E94 0000 		call __addsf3
 440 00f8 A801      		movw r20,r16
 441 00fa 9701      		movw r18,r14
 442 00fc 0E94 0000 		call __eqsf2
 443 0100 8823      		tst r24
 444 0102 01F0      		breq .+2
 445 0104 00C0      		rjmp .L33
 446               	.LSM38:
 447 0106 EC80      		ldd r14,Y+4
 448 0108 FD80      		ldd r15,Y+5
 449 010a 0E81      		ldd r16,Y+6
 450 010c 1F81      		ldd r17,Y+7
 451 010e 2091 0000 		lds r18,border2+4
 452 0112 3091 0000 		lds r19,(border2+4)+1
 453 0116 4091 0000 		lds r20,(border2+4)+2
 454 011a 5091 0000 		lds r21,(border2+4)+3
 455 011e C801      		movw r24,r16
 456 0120 B701      		movw r22,r14
 457 0122 0E94 0000 		call __gesf2
 458 0126 8823      		tst r24
 459 0128 04F0      		brlt .L33
 460 012a 2091 0000 		lds r18,border2+12
 461 012e 3091 0000 		lds r19,(border2+12)+1
 462 0132 4091 0000 		lds r20,(border2+12)+2
 463 0136 5091 0000 		lds r21,(border2+12)+3
 464 013a C801      		movw r24,r16
 465 013c B701      		movw r22,r14
 466 013e 0E94 0000 		call __lesf2
 467 0142 1816      		cp __zero_reg__,r24
 468 0144 04F0      		brlt .L33
 469               	.LSM39:
 470 0146 ED84      		ldd r14,Y+13
 471 0148 FE84      		ldd r15,Y+14
 472 014a 0F85      		ldd r16,Y+15
 473 014c 1889      		ldd r17,Y+16
 474 014e C801      		movw r24,r16
 475 0150 B701      		movw r22,r14
 476 0152 20E0      		ldi r18,lo8(0x0)
 477 0154 30E0      		ldi r19,hi8(0x0)
 478 0156 40E0      		ldi r20,hlo8(0x0)
 479 0158 50E0      		ldi r21,hhi8(0x0)
 480 015a 0E94 0000 		call __gtsf2
 481 015e 1816      		cp __zero_reg__,r24
 482 0160 04F0      		brlt .L132
 483               	.L124:
 484               	.LSM40:
 485 0162 C801      		movw r24,r16
 486 0164 B701      		movw r22,r14
 487 0166 20E0      		ldi r18,lo8(0x0)
 488 0168 30E0      		ldi r19,hi8(0x0)
 489 016a 40E0      		ldi r20,hlo8(0x0)
 490 016c 50E0      		ldi r21,hhi8(0x0)
 491 016e 0E94 0000 		call __ltsf2
 492 0172 8823      		tst r24
 493 0174 04F4      		brge .L33
 494               	.L132:
 495               	.LSM41:
 496 0176 C601      		movw r24,r12
 497 0178 B501      		movw r22,r10
 498 017a A801      		movw r20,r16
 499 017c 9701      		movw r18,r14
 500 017e 0E94 0000 		call __subsf3
 501 0182 6883      		st Y,r22
 502 0184 7983      		std Y+1,r23
 503 0186 8A83      		std Y+2,r24
 504 0188 9B83      		std Y+3,r25
 505               	.L33:
 506               	.LSM42:
 507 018a AC80      		ldd r10,Y+4
 508 018c BD80      		ldd r11,Y+5
 509 018e CE80      		ldd r12,Y+6
 510 0190 DF80      		ldd r13,Y+7
 511 0192 E090 0000 		lds r14,border3+4
 512 0196 F090 0000 		lds r15,(border3+4)+1
 513 019a 0091 0000 		lds r16,(border3+4)+2
 514 019e 1091 0000 		lds r17,(border3+4)+3
 515 01a2 C601      		movw r24,r12
 516 01a4 B501      		movw r22,r10
 517 01a6 20E0      		ldi r18,lo8(0x3f800000)
 518 01a8 30E0      		ldi r19,hi8(0x3f800000)
 519 01aa 40E8      		ldi r20,hlo8(0x3f800000)
 520 01ac 5FE3      		ldi r21,hhi8(0x3f800000)
 521 01ae 0E94 0000 		call __addsf3
 522 01b2 A801      		movw r20,r16
 523 01b4 9701      		movw r18,r14
 524 01b6 0E94 0000 		call __eqsf2
 525 01ba 8823      		tst r24
 526 01bc 01F0      		breq .+2
 527 01be 00C0      		rjmp .L40
 528               	.LSM43:
 529 01c0 E880      		ld r14,Y
 530 01c2 F980      		ldd r15,Y+1
 531 01c4 0A81      		ldd r16,Y+2
 532 01c6 1B81      		ldd r17,Y+3
 533 01c8 2091 0000 		lds r18,border3
 534 01cc 3091 0000 		lds r19,(border3)+1
 535 01d0 4091 0000 		lds r20,(border3)+2
 536 01d4 5091 0000 		lds r21,(border3)+3
 537 01d8 C801      		movw r24,r16
 538 01da B701      		movw r22,r14
 539 01dc 0E94 0000 		call __gesf2
 540 01e0 8823      		tst r24
 541 01e2 04F0      		brlt .L40
 542 01e4 2091 0000 		lds r18,border3+8
 543 01e8 3091 0000 		lds r19,(border3+8)+1
 544 01ec 4091 0000 		lds r20,(border3+8)+2
 545 01f0 5091 0000 		lds r21,(border3+8)+3
 546 01f4 C801      		movw r24,r16
 547 01f6 B701      		movw r22,r14
 548 01f8 0E94 0000 		call __lesf2
 549 01fc 1816      		cp __zero_reg__,r24
 550 01fe 04F0      		brlt .L40
 551               	.LSM44:
 552 0200 E988      		ldd r14,Y+17
 553 0202 FA88      		ldd r15,Y+18
 554 0204 0B89      		ldd r16,Y+19
 555 0206 1C89      		ldd r17,Y+20
 556 0208 C801      		movw r24,r16
 557 020a B701      		movw r22,r14
 558 020c 20E0      		ldi r18,lo8(0x0)
 559 020e 30E0      		ldi r19,hi8(0x0)
 560 0210 40E0      		ldi r20,hlo8(0x0)
 561 0212 50E0      		ldi r21,hhi8(0x0)
 562 0214 0E94 0000 		call __gtsf2
 563 0218 1816      		cp __zero_reg__,r24
 564 021a 04F0      		brlt .L133
 565               	.L125:
 566               	.LSM45:
 567 021c C801      		movw r24,r16
 568 021e B701      		movw r22,r14
 569 0220 20E0      		ldi r18,lo8(0x0)
 570 0222 30E0      		ldi r19,hi8(0x0)
 571 0224 40E0      		ldi r20,hlo8(0x0)
 572 0226 50E0      		ldi r21,hhi8(0x0)
 573 0228 0E94 0000 		call __ltsf2
 574 022c 8823      		tst r24
 575 022e 04F4      		brge .L40
 576               	.L133:
 577               	.LSM46:
 578 0230 C601      		movw r24,r12
 579 0232 B501      		movw r22,r10
 580 0234 A801      		movw r20,r16
 581 0236 9701      		movw r18,r14
 582 0238 0E94 0000 		call __subsf3
 583 023c 6C83      		std Y+4,r22
 584 023e 7D83      		std Y+5,r23
 585 0240 8E83      		std Y+6,r24
 586 0242 9F83      		std Y+7,r25
 587               	.L40:
 588               	.LSM47:
 589 0244 AC80      		ldd r10,Y+4
 590 0246 BD80      		ldd r11,Y+5
 591 0248 CE80      		ldd r12,Y+6
 592 024a DF80      		ldd r13,Y+7
 593 024c E090 0000 		lds r14,border4+4
 594 0250 F090 0000 		lds r15,(border4+4)+1
 595 0254 0091 0000 		lds r16,(border4+4)+2
 596 0258 1091 0000 		lds r17,(border4+4)+3
 597 025c C601      		movw r24,r12
 598 025e B501      		movw r22,r10
 599 0260 20E0      		ldi r18,lo8(0x3f800000)
 600 0262 30E0      		ldi r19,hi8(0x3f800000)
 601 0264 40E8      		ldi r20,hlo8(0x3f800000)
 602 0266 5FE3      		ldi r21,hhi8(0x3f800000)
 603 0268 0E94 0000 		call __addsf3
 604 026c A801      		movw r20,r16
 605 026e 9701      		movw r18,r14
 606 0270 0E94 0000 		call __eqsf2
 607 0274 8823      		tst r24
 608 0276 01F0      		breq .+2
 609 0278 00C0      		rjmp .L47
 610               	.LSM48:
 611 027a E880      		ld r14,Y
 612 027c F980      		ldd r15,Y+1
 613 027e 0A81      		ldd r16,Y+2
 614 0280 1B81      		ldd r17,Y+3
 615 0282 2091 0000 		lds r18,border4
 616 0286 3091 0000 		lds r19,(border4)+1
 617 028a 4091 0000 		lds r20,(border4)+2
 618 028e 5091 0000 		lds r21,(border4)+3
 619 0292 C801      		movw r24,r16
 620 0294 B701      		movw r22,r14
 621 0296 0E94 0000 		call __gesf2
 622 029a 8823      		tst r24
 623 029c 04F0      		brlt .L47
 624 029e 2091 0000 		lds r18,border4+8
 625 02a2 3091 0000 		lds r19,(border4+8)+1
 626 02a6 4091 0000 		lds r20,(border4+8)+2
 627 02aa 5091 0000 		lds r21,(border4+8)+3
 628 02ae C801      		movw r24,r16
 629 02b0 B701      		movw r22,r14
 630 02b2 0E94 0000 		call __lesf2
 631 02b6 1816      		cp __zero_reg__,r24
 632 02b8 04F0      		brlt .L47
 633               	.LSM49:
 634 02ba E988      		ldd r14,Y+17
 635 02bc FA88      		ldd r15,Y+18
 636 02be 0B89      		ldd r16,Y+19
 637 02c0 1C89      		ldd r17,Y+20
 638 02c2 C801      		movw r24,r16
 639 02c4 B701      		movw r22,r14
 640 02c6 20E0      		ldi r18,lo8(0x0)
 641 02c8 30E0      		ldi r19,hi8(0x0)
 642 02ca 40E0      		ldi r20,hlo8(0x0)
 643 02cc 50E0      		ldi r21,hhi8(0x0)
 644 02ce 0E94 0000 		call __gtsf2
 645 02d2 1816      		cp __zero_reg__,r24
 646 02d4 04F0      		brlt .L134
 647               	.L126:
 648               	.LSM50:
 649 02d6 C801      		movw r24,r16
 650 02d8 B701      		movw r22,r14
 651 02da 20E0      		ldi r18,lo8(0x0)
 652 02dc 30E0      		ldi r19,hi8(0x0)
 653 02de 40E0      		ldi r20,hlo8(0x0)
 654 02e0 50E0      		ldi r21,hhi8(0x0)
 655 02e2 0E94 0000 		call __ltsf2
 656 02e6 8823      		tst r24
 657 02e8 04F4      		brge .L47
 658               	.L134:
 659               	.LSM51:
 660 02ea C601      		movw r24,r12
 661 02ec B501      		movw r22,r10
 662 02ee A801      		movw r20,r16
 663 02f0 9701      		movw r18,r14
 664 02f2 0E94 0000 		call __subsf3
 665 02f6 6C83      		std Y+4,r22
 666 02f8 7D83      		std Y+5,r23
 667 02fa 8E83      		std Y+6,r24
 668 02fc 9F83      		std Y+7,r25
 669               	.L47:
 670               	.LSM52:
 671 02fe AC80      		ldd r10,Y+4
 672 0300 BD80      		ldd r11,Y+5
 673 0302 CE80      		ldd r12,Y+6
 674 0304 DF80      		ldd r13,Y+7
 675 0306 E090 0000 		lds r14,border5+4
 676 030a F090 0000 		lds r15,(border5+4)+1
 677 030e 0091 0000 		lds r16,(border5+4)+2
 678 0312 1091 0000 		lds r17,(border5+4)+3
 679 0316 C601      		movw r24,r12
 680 0318 B501      		movw r22,r10
 681 031a 20E0      		ldi r18,lo8(0x3f800000)
 682 031c 30E0      		ldi r19,hi8(0x3f800000)
 683 031e 40E8      		ldi r20,hlo8(0x3f800000)
 684 0320 5FE3      		ldi r21,hhi8(0x3f800000)
 685 0322 0E94 0000 		call __addsf3
 686 0326 A801      		movw r20,r16
 687 0328 9701      		movw r18,r14
 688 032a 0E94 0000 		call __eqsf2
 689 032e 8823      		tst r24
 690 0330 01F0      		breq .+2
 691 0332 00C0      		rjmp .L54
 692               	.LSM53:
 693 0334 E880      		ld r14,Y
 694 0336 F980      		ldd r15,Y+1
 695 0338 0A81      		ldd r16,Y+2
 696 033a 1B81      		ldd r17,Y+3
 697 033c 2091 0000 		lds r18,border5
 698 0340 3091 0000 		lds r19,(border5)+1
 699 0344 4091 0000 		lds r20,(border5)+2
 700 0348 5091 0000 		lds r21,(border5)+3
 701 034c C801      		movw r24,r16
 702 034e B701      		movw r22,r14
 703 0350 0E94 0000 		call __gesf2
 704 0354 8823      		tst r24
 705 0356 04F0      		brlt .L54
 706 0358 2091 0000 		lds r18,border5+8
 707 035c 3091 0000 		lds r19,(border5+8)+1
 708 0360 4091 0000 		lds r20,(border5+8)+2
 709 0364 5091 0000 		lds r21,(border5+8)+3
 710 0368 C801      		movw r24,r16
 711 036a B701      		movw r22,r14
 712 036c 0E94 0000 		call __lesf2
 713 0370 1816      		cp __zero_reg__,r24
 714 0372 04F0      		brlt .L54
 715               	.LSM54:
 716 0374 E988      		ldd r14,Y+17
 717 0376 FA88      		ldd r15,Y+18
 718 0378 0B89      		ldd r16,Y+19
 719 037a 1C89      		ldd r17,Y+20
 720 037c C801      		movw r24,r16
 721 037e B701      		movw r22,r14
 722 0380 20E0      		ldi r18,lo8(0x0)
 723 0382 30E0      		ldi r19,hi8(0x0)
 724 0384 40E0      		ldi r20,hlo8(0x0)
 725 0386 50E0      		ldi r21,hhi8(0x0)
 726 0388 0E94 0000 		call __gtsf2
 727 038c 1816      		cp __zero_reg__,r24
 728 038e 04F0      		brlt .L135
 729               	.L127:
 730               	.LSM55:
 731 0390 C801      		movw r24,r16
 732 0392 B701      		movw r22,r14
 733 0394 20E0      		ldi r18,lo8(0x0)
 734 0396 30E0      		ldi r19,hi8(0x0)
 735 0398 40E0      		ldi r20,hlo8(0x0)
 736 039a 50E0      		ldi r21,hhi8(0x0)
 737 039c 0E94 0000 		call __ltsf2
 738 03a0 8823      		tst r24
 739 03a2 04F4      		brge .L54
 740               	.L135:
 741               	.LSM56:
 742 03a4 C601      		movw r24,r12
 743 03a6 B501      		movw r22,r10
 744 03a8 A801      		movw r20,r16
 745 03aa 9701      		movw r18,r14
 746 03ac 0E94 0000 		call __subsf3
 747 03b0 6C83      		std Y+4,r22
 748 03b2 7D83      		std Y+5,r23
 749 03b4 8E83      		std Y+6,r24
 750 03b6 9F83      		std Y+7,r25
 751               	.L54:
 752               	.LSM57:
 753 03b8 AC80      		ldd r10,Y+4
 754 03ba BD80      		ldd r11,Y+5
 755 03bc CE80      		ldd r12,Y+6
 756 03be DF80      		ldd r13,Y+7
 757 03c0 E090 0000 		lds r14,border6+4
 758 03c4 F090 0000 		lds r15,(border6+4)+1
 759 03c8 0091 0000 		lds r16,(border6+4)+2
 760 03cc 1091 0000 		lds r17,(border6+4)+3
 761 03d0 C601      		movw r24,r12
 762 03d2 B501      		movw r22,r10
 763 03d4 20E0      		ldi r18,lo8(0x3f800000)
 764 03d6 30E0      		ldi r19,hi8(0x3f800000)
 765 03d8 40E8      		ldi r20,hlo8(0x3f800000)
 766 03da 5FE3      		ldi r21,hhi8(0x3f800000)
 767 03dc 0E94 0000 		call __addsf3
 768 03e0 A801      		movw r20,r16
 769 03e2 9701      		movw r18,r14
 770 03e4 0E94 0000 		call __eqsf2
 771 03e8 8823      		tst r24
 772 03ea 01F0      		breq .+2
 773 03ec 00C0      		rjmp .L61
 774               	.LSM58:
 775 03ee E880      		ld r14,Y
 776 03f0 F980      		ldd r15,Y+1
 777 03f2 0A81      		ldd r16,Y+2
 778 03f4 1B81      		ldd r17,Y+3
 779 03f6 2091 0000 		lds r18,border6
 780 03fa 3091 0000 		lds r19,(border6)+1
 781 03fe 4091 0000 		lds r20,(border6)+2
 782 0402 5091 0000 		lds r21,(border6)+3
 783 0406 C801      		movw r24,r16
 784 0408 B701      		movw r22,r14
 785 040a 0E94 0000 		call __gesf2
 786 040e 8823      		tst r24
 787 0410 04F0      		brlt .L61
 788 0412 2091 0000 		lds r18,border6+8
 789 0416 3091 0000 		lds r19,(border6+8)+1
 790 041a 4091 0000 		lds r20,(border6+8)+2
 791 041e 5091 0000 		lds r21,(border6+8)+3
 792 0422 C801      		movw r24,r16
 793 0424 B701      		movw r22,r14
 794 0426 0E94 0000 		call __lesf2
 795 042a 1816      		cp __zero_reg__,r24
 796 042c 04F0      		brlt .L61
 797               	.LSM59:
 798 042e E988      		ldd r14,Y+17
 799 0430 FA88      		ldd r15,Y+18
 800 0432 0B89      		ldd r16,Y+19
 801 0434 1C89      		ldd r17,Y+20
 802 0436 C801      		movw r24,r16
 803 0438 B701      		movw r22,r14
 804 043a 20E0      		ldi r18,lo8(0x0)
 805 043c 30E0      		ldi r19,hi8(0x0)
 806 043e 40E0      		ldi r20,hlo8(0x0)
 807 0440 50E0      		ldi r21,hhi8(0x0)
 808 0442 0E94 0000 		call __gtsf2
 809 0446 1816      		cp __zero_reg__,r24
 810 0448 04F0      		brlt .L136
 811               	.L128:
 812               	.LSM60:
 813 044a C801      		movw r24,r16
 814 044c B701      		movw r22,r14
 815 044e 20E0      		ldi r18,lo8(0x0)
 816 0450 30E0      		ldi r19,hi8(0x0)
 817 0452 40E0      		ldi r20,hlo8(0x0)
 818 0454 50E0      		ldi r21,hhi8(0x0)
 819 0456 0E94 0000 		call __ltsf2
 820 045a 8823      		tst r24
 821 045c 04F4      		brge .L61
 822               	.L136:
 823               	.LSM61:
 824 045e C601      		movw r24,r12
 825 0460 B501      		movw r22,r10
 826 0462 A801      		movw r20,r16
 827 0464 9701      		movw r18,r14
 828 0466 0E94 0000 		call __subsf3
 829 046a 6C83      		std Y+4,r22
 830 046c 7D83      		std Y+5,r23
 831 046e 8E83      		std Y+6,r24
 832 0470 9F83      		std Y+7,r25
 833               	.L61:
 834               	.LSM62:
 835 0472 AC80      		ldd r10,Y+4
 836 0474 BD80      		ldd r11,Y+5
 837 0476 CE80      		ldd r12,Y+6
 838 0478 DF80      		ldd r13,Y+7
 839 047a E090 0000 		lds r14,border7+4
 840 047e F090 0000 		lds r15,(border7+4)+1
 841 0482 0091 0000 		lds r16,(border7+4)+2
 842 0486 1091 0000 		lds r17,(border7+4)+3
 843 048a C601      		movw r24,r12
 844 048c B501      		movw r22,r10
 845 048e 20E0      		ldi r18,lo8(0x3f800000)
 846 0490 30E0      		ldi r19,hi8(0x3f800000)
 847 0492 40E8      		ldi r20,hlo8(0x3f800000)
 848 0494 5FE3      		ldi r21,hhi8(0x3f800000)
 849 0496 0E94 0000 		call __addsf3
 850 049a A801      		movw r20,r16
 851 049c 9701      		movw r18,r14
 852 049e 0E94 0000 		call __eqsf2
 853 04a2 8823      		tst r24
 854 04a4 01F0      		breq .+2
 855 04a6 00C0      		rjmp .L68
 856               	.LSM63:
 857 04a8 E880      		ld r14,Y
 858 04aa F980      		ldd r15,Y+1
 859 04ac 0A81      		ldd r16,Y+2
 860 04ae 1B81      		ldd r17,Y+3
 861 04b0 2091 0000 		lds r18,border7
 862 04b4 3091 0000 		lds r19,(border7)+1
 863 04b8 4091 0000 		lds r20,(border7)+2
 864 04bc 5091 0000 		lds r21,(border7)+3
 865 04c0 C801      		movw r24,r16
 866 04c2 B701      		movw r22,r14
 867 04c4 0E94 0000 		call __gesf2
 868 04c8 8823      		tst r24
 869 04ca 04F0      		brlt .L68
 870 04cc 2091 0000 		lds r18,border7+8
 871 04d0 3091 0000 		lds r19,(border7+8)+1
 872 04d4 4091 0000 		lds r20,(border7+8)+2
 873 04d8 5091 0000 		lds r21,(border7+8)+3
 874 04dc C801      		movw r24,r16
 875 04de B701      		movw r22,r14
 876 04e0 0E94 0000 		call __lesf2
 877 04e4 1816      		cp __zero_reg__,r24
 878 04e6 04F0      		brlt .L68
 879               	.LSM64:
 880 04e8 E988      		ldd r14,Y+17
 881 04ea FA88      		ldd r15,Y+18
 882 04ec 0B89      		ldd r16,Y+19
 883 04ee 1C89      		ldd r17,Y+20
 884 04f0 C801      		movw r24,r16
 885 04f2 B701      		movw r22,r14
 886 04f4 20E0      		ldi r18,lo8(0x0)
 887 04f6 30E0      		ldi r19,hi8(0x0)
 888 04f8 40E0      		ldi r20,hlo8(0x0)
 889 04fa 50E0      		ldi r21,hhi8(0x0)
 890 04fc 0E94 0000 		call __gtsf2
 891 0500 1816      		cp __zero_reg__,r24
 892 0502 04F0      		brlt .L137
 893               	.L129:
 894               	.LSM65:
 895 0504 C801      		movw r24,r16
 896 0506 B701      		movw r22,r14
 897 0508 20E0      		ldi r18,lo8(0x0)
 898 050a 30E0      		ldi r19,hi8(0x0)
 899 050c 40E0      		ldi r20,hlo8(0x0)
 900 050e 50E0      		ldi r21,hhi8(0x0)
 901 0510 0E94 0000 		call __ltsf2
 902 0514 8823      		tst r24
 903 0516 04F4      		brge .L68
 904               	.L137:
 905               	.LSM66:
 906 0518 C601      		movw r24,r12
 907 051a B501      		movw r22,r10
 908 051c A801      		movw r20,r16
 909 051e 9701      		movw r18,r14
 910 0520 0E94 0000 		call __subsf3
 911 0524 6C83      		std Y+4,r22
 912 0526 7D83      		std Y+5,r23
 913 0528 8E83      		std Y+6,r24
 914 052a 9F83      		std Y+7,r25
 915               	.L68:
 916               	.LSM67:
 917 052c AC80      		ldd r10,Y+4
 918 052e BD80      		ldd r11,Y+5
 919 0530 CE80      		ldd r12,Y+6
 920 0532 DF80      		ldd r13,Y+7
 921 0534 E090 0000 		lds r14,border8+4
 922 0538 F090 0000 		lds r15,(border8+4)+1
 923 053c 0091 0000 		lds r16,(border8+4)+2
 924 0540 1091 0000 		lds r17,(border8+4)+3
 925 0544 C601      		movw r24,r12
 926 0546 B501      		movw r22,r10
 927 0548 20E0      		ldi r18,lo8(0x3f800000)
 928 054a 30E0      		ldi r19,hi8(0x3f800000)
 929 054c 40E8      		ldi r20,hlo8(0x3f800000)
 930 054e 5FE3      		ldi r21,hhi8(0x3f800000)
 931 0550 0E94 0000 		call __addsf3
 932 0554 A801      		movw r20,r16
 933 0556 9701      		movw r18,r14
 934 0558 0E94 0000 		call __eqsf2
 935 055c 8823      		tst r24
 936 055e 01F0      		breq .+2
 937 0560 00C0      		rjmp .L82
 938               	.LSM68:
 939 0562 E880      		ld r14,Y
 940 0564 F980      		ldd r15,Y+1
 941 0566 0A81      		ldd r16,Y+2
 942 0568 1B81      		ldd r17,Y+3
 943 056a 2091 0000 		lds r18,border8
 944 056e 3091 0000 		lds r19,(border8)+1
 945 0572 4091 0000 		lds r20,(border8)+2
 946 0576 5091 0000 		lds r21,(border8)+3
 947 057a C801      		movw r24,r16
 948 057c B701      		movw r22,r14
 949 057e 0E94 0000 		call __gesf2
 950 0582 8823      		tst r24
 951 0584 04F0      		brlt .L82
 952 0586 2091 0000 		lds r18,border8+8
 953 058a 3091 0000 		lds r19,(border8+8)+1
 954 058e 4091 0000 		lds r20,(border8+8)+2
 955 0592 5091 0000 		lds r21,(border8+8)+3
 956 0596 C801      		movw r24,r16
 957 0598 B701      		movw r22,r14
 958 059a 0E94 0000 		call __lesf2
 959 059e 1816      		cp __zero_reg__,r24
 960 05a0 04F0      		brlt .L82
 961               	.LSM69:
 962 05a2 E988      		ldd r14,Y+17
 963 05a4 FA88      		ldd r15,Y+18
 964 05a6 0B89      		ldd r16,Y+19
 965 05a8 1C89      		ldd r17,Y+20
 966 05aa C801      		movw r24,r16
 967 05ac B701      		movw r22,r14
 968 05ae 20E0      		ldi r18,lo8(0x0)
 969 05b0 30E0      		ldi r19,hi8(0x0)
 970 05b2 40E0      		ldi r20,hlo8(0x0)
 971 05b4 50E0      		ldi r21,hhi8(0x0)
 972 05b6 0E94 0000 		call __gtsf2
 973 05ba 1816      		cp __zero_reg__,r24
 974 05bc 04F4      		brge .L130
 975               	.LSM70:
 976 05be C601      		movw r24,r12
 977 05c0 B501      		movw r22,r10
 978 05c2 A801      		movw r20,r16
 979 05c4 9701      		movw r18,r14
 980 05c6 0E94 0000 		call __subsf3
 981 05ca 00C0      		rjmp .L138
 982               	.L130:
 983               	.LSM71:
 984 05cc C801      		movw r24,r16
 985 05ce B701      		movw r22,r14
 986 05d0 20E0      		ldi r18,lo8(0x0)
 987 05d2 30E0      		ldi r19,hi8(0x0)
 988 05d4 40E0      		ldi r20,hlo8(0x0)
 989 05d6 50E0      		ldi r21,hhi8(0x0)
 990 05d8 0E94 0000 		call __ltsf2
 991 05dc 8823      		tst r24
 992 05de 04F4      		brge .L82
 993               	.LSM72:
 994 05e0 C601      		movw r24,r12
 995 05e2 B501      		movw r22,r10
 996 05e4 A801      		movw r20,r16
 997 05e6 9701      		movw r18,r14
 998 05e8 0E94 0000 		call __addsf3
 999               	.L138:
 1000 05ec 6C83      		std Y+4,r22
 1001 05ee 7D83      		std Y+5,r23
 1002 05f0 8E83      		std Y+6,r24
 1003 05f2 9F83      		std Y+7,r25
 1004               	.L82:
 1005               	/* epilogue start */
 1006               	.LSM73:
 1007 05f4 DF91      		pop r29
 1008 05f6 CF91      		pop r28
 1009               	.LVL5:
 1010 05f8 1F91      		pop r17
 1011 05fa 0F91      		pop r16
 1012 05fc FF90      		pop r15
 1013 05fe EF90      		pop r14
 1014 0600 DF90      		pop r13
 1015 0602 CF90      		pop r12
 1016 0604 BF90      		pop r11
 1017 0606 AF90      		pop r10
 1018 0608 0895      		ret
 1019               	.LFE13:
 1021               		.section	.text.z_stage_collision,"ax",@progbits
 1022               	.global	z_stage_collision
 1024               	z_stage_collision:
 1025               	.LFB14:
 1026               	.LSM74:
 1027 0000 6F92      		push r6
 1028 0002 7F92      		push r7
 1029 0004 8F92      		push r8
 1030 0006 9F92      		push r9
 1031 0008 AF92      		push r10
 1032 000a BF92      		push r11
 1033 000c CF92      		push r12
 1034 000e DF92      		push r13
 1035 0010 EF92      		push r14
 1036 0012 FF92      		push r15
 1037 0014 0F93      		push r16
 1038 0016 1F93      		push r17
 1039 0018 CF93      		push r28
 1040 001a DF93      		push r29
 1041               	/* prologue: function */
 1042               	/* frame size = 0 */
 1043               	.LSM75:
 1044 001c C0E0      		ldi r28,lo8(zombies)
 1045 001e D0E0      		ldi r29,hi8(zombies)
 1046               	.L180:
 1047               	.LBB2:
 1048               	.LSM76:
 1049 0020 6C80      		ldd r6,Y+4
 1050 0022 7D80      		ldd r7,Y+5
 1051 0024 8E80      		ldd r8,Y+6
 1052 0026 9F80      		ldd r9,Y+7
 1053 0028 E090 0000 		lds r14,border1+4
 1054 002c F090 0000 		lds r15,(border1+4)+1
 1055 0030 0091 0000 		lds r16,(border1+4)+2
 1056 0034 1091 0000 		lds r17,(border1+4)+3
 1057 0038 C401      		movw r24,r8
 1058 003a B301      		movw r22,r6
 1059 003c 20E0      		ldi r18,lo8(0x3f800000)
 1060 003e 30E0      		ldi r19,hi8(0x3f800000)
 1061 0040 40E8      		ldi r20,hlo8(0x3f800000)
 1062 0042 5FE3      		ldi r21,hhi8(0x3f800000)
 1063 0044 0E94 0000 		call __addsf3
 1064 0048 5B01      		movw r10,r22
 1065 004a 6C01      		movw r12,r24
 1066 004c C801      		movw r24,r16
 1067 004e B701      		movw r22,r14
 1068 0050 20E0      		ldi r18,lo8(0x3f800000)
 1069 0052 30E0      		ldi r19,hi8(0x3f800000)
 1070 0054 40E8      		ldi r20,hlo8(0x3f800000)
 1071 0056 5FE3      		ldi r21,hhi8(0x3f800000)
 1072 0058 0E94 0000 		call __subsf3
 1073 005c 9B01      		movw r18,r22
 1074 005e AC01      		movw r20,r24
 1075 0060 C601      		movw r24,r12
 1076 0062 B501      		movw r22,r10
 1077 0064 0E94 0000 		call __gtsf2
 1078 0068 1816      		cp __zero_reg__,r24
 1079 006a 04F0      		brlt .+2
 1080 006c 00C0      		rjmp .L140
 1081 006e E090 0000 		lds r14,border1+4
 1082 0072 F090 0000 		lds r15,(border1+4)+1
 1083 0076 0091 0000 		lds r16,(border1+4)+2
 1084 007a 1091 0000 		lds r17,(border1+4)+3
 1085 007e C401      		movw r24,r8
 1086 0080 B301      		movw r22,r6
 1087 0082 20E0      		ldi r18,lo8(0x3f800000)
 1088 0084 30E0      		ldi r19,hi8(0x3f800000)
 1089 0086 40E8      		ldi r20,hlo8(0x3f800000)
 1090 0088 5FE3      		ldi r21,hhi8(0x3f800000)
 1091 008a 0E94 0000 		call __subsf3
 1092 008e A801      		movw r20,r16
 1093 0090 9701      		movw r18,r14
 1094 0092 0E94 0000 		call __ltsf2
 1095 0096 8823      		tst r24
 1096 0098 04F4      		brge .L140
 1097               	.LSM77:
 1098 009a E880      		ld r14,Y
 1099 009c F980      		ldd r15,Y+1
 1100 009e 0A81      		ldd r16,Y+2
 1101 00a0 1B81      		ldd r17,Y+3
 1102 00a2 2091 0000 		lds r18,border1
 1103 00a6 3091 0000 		lds r19,(border1)+1
 1104 00aa 4091 0000 		lds r20,(border1)+2
 1105 00ae 5091 0000 		lds r21,(border1)+3
 1106 00b2 C801      		movw r24,r16
 1107 00b4 B701      		movw r22,r14
 1108 00b6 0E94 0000 		call __gesf2
 1109 00ba 8823      		tst r24
 1110 00bc 04F0      		brlt .L140
 1111 00be 2091 0000 		lds r18,border1+8
 1112 00c2 3091 0000 		lds r19,(border1+8)+1
 1113 00c6 4091 0000 		lds r20,(border1+8)+2
 1114 00ca 5091 0000 		lds r21,(border1+8)+3
 1115 00ce C801      		movw r24,r16
 1116 00d0 B701      		movw r22,r14
 1117 00d2 0E94 0000 		call __lesf2
 1118 00d6 1816      		cp __zero_reg__,r24
 1119 00d8 04F0      		brlt .L140
 1120               	.LSM78:
 1121 00da 8989      		ldd r24,Y+17
 1122 00dc 9A89      		ldd r25,Y+18
 1123 00de AB89      		ldd r26,Y+19
 1124 00e0 BC89      		ldd r27,Y+20
 1125 00e2 B058      		subi r27,0x80
 1126 00e4 898B      		std Y+17,r24
 1127 00e6 9A8B      		std Y+18,r25
 1128 00e8 AB8B      		std Y+19,r26
 1129 00ea BC8B      		std Y+20,r27
 1130               	.L140:
 1131               	.LSM79:
 1132 00ec 6C80      		ldd r6,Y+4
 1133 00ee 7D80      		ldd r7,Y+5
 1134 00f0 8E80      		ldd r8,Y+6
 1135 00f2 9F80      		ldd r9,Y+7
 1136 00f4 E090 0000 		lds r14,border2
 1137 00f8 F090 0000 		lds r15,(border2)+1
 1138 00fc 0091 0000 		lds r16,(border2)+2
 1139 0100 1091 0000 		lds r17,(border2)+3
 1140 0104 C401      		movw r24,r8
 1141 0106 B301      		movw r22,r6
 1142 0108 20E0      		ldi r18,lo8(0x3f800000)
 1143 010a 30E0      		ldi r19,hi8(0x3f800000)
 1144 010c 40E8      		ldi r20,hlo8(0x3f800000)
 1145 010e 5FE3      		ldi r21,hhi8(0x3f800000)
 1146 0110 0E94 0000 		call __addsf3
 1147 0114 5B01      		movw r10,r22
 1148 0116 6C01      		movw r12,r24
 1149 0118 C801      		movw r24,r16
 1150 011a B701      		movw r22,r14
 1151 011c 20E0      		ldi r18,lo8(0x3f800000)
 1152 011e 30E0      		ldi r19,hi8(0x3f800000)
 1153 0120 40E8      		ldi r20,hlo8(0x3f800000)
 1154 0122 5FE3      		ldi r21,hhi8(0x3f800000)
 1155 0124 0E94 0000 		call __subsf3
 1156 0128 9B01      		movw r18,r22
 1157 012a AC01      		movw r20,r24
 1158 012c C601      		movw r24,r12
 1159 012e B501      		movw r22,r10
 1160 0130 0E94 0000 		call __gtsf2
 1161 0134 1816      		cp __zero_reg__,r24
 1162 0136 04F0      		brlt .+2
 1163 0138 00C0      		rjmp .L145
 1164 013a E090 0000 		lds r14,border2
 1165 013e F090 0000 		lds r15,(border2)+1
 1166 0142 0091 0000 		lds r16,(border2)+2
 1167 0146 1091 0000 		lds r17,(border2)+3
 1168 014a C401      		movw r24,r8
 1169 014c B301      		movw r22,r6
 1170 014e 20E0      		ldi r18,lo8(0x3f800000)
 1171 0150 30E0      		ldi r19,hi8(0x3f800000)
 1172 0152 40E8      		ldi r20,hlo8(0x3f800000)
 1173 0154 5FE3      		ldi r21,hhi8(0x3f800000)
 1174 0156 0E94 0000 		call __subsf3
 1175 015a A801      		movw r20,r16
 1176 015c 9701      		movw r18,r14
 1177 015e 0E94 0000 		call __ltsf2
 1178 0162 8823      		tst r24
 1179 0164 04F4      		brge .L145
 1180               	.LSM80:
 1181 0166 2091 0000 		lds r18,border2+4
 1182 016a 3091 0000 		lds r19,(border2+4)+1
 1183 016e 4091 0000 		lds r20,(border2+4)+2
 1184 0172 5091 0000 		lds r21,(border2+4)+3
 1185 0176 C401      		movw r24,r8
 1186 0178 B301      		movw r22,r6
 1187 017a 0E94 0000 		call __gesf2
 1188 017e 8823      		tst r24
 1189 0180 04F0      		brlt .L145
 1190 0182 2091 0000 		lds r18,border2+12
 1191 0186 3091 0000 		lds r19,(border2+12)+1
 1192 018a 4091 0000 		lds r20,(border2+12)+2
 1193 018e 5091 0000 		lds r21,(border2+12)+3
 1194 0192 C401      		movw r24,r8
 1195 0194 B301      		movw r22,r6
 1196 0196 0E94 0000 		call __lesf2
 1197 019a 1816      		cp __zero_reg__,r24
 1198 019c 04F0      		brlt .L145
 1199               	.LSM81:
 1200 019e 8D85      		ldd r24,Y+13
 1201 01a0 9E85      		ldd r25,Y+14
 1202 01a2 AF85      		ldd r26,Y+15
 1203 01a4 B889      		ldd r27,Y+16
 1204 01a6 B058      		subi r27,0x80
 1205 01a8 8D87      		std Y+13,r24
 1206 01aa 9E87      		std Y+14,r25
 1207 01ac AF87      		std Y+15,r26
 1208 01ae B88B      		std Y+16,r27
 1209               	.L145:
 1210               	.LSM82:
 1211 01b0 6C80      		ldd r6,Y+4
 1212 01b2 7D80      		ldd r7,Y+5
 1213 01b4 8E80      		ldd r8,Y+6
 1214 01b6 9F80      		ldd r9,Y+7
 1215 01b8 E090 0000 		lds r14,border3+4
 1216 01bc F090 0000 		lds r15,(border3+4)+1
 1217 01c0 0091 0000 		lds r16,(border3+4)+2
 1218 01c4 1091 0000 		lds r17,(border3+4)+3
 1219 01c8 C401      		movw r24,r8
 1220 01ca B301      		movw r22,r6
 1221 01cc 20E0      		ldi r18,lo8(0x3f800000)
 1222 01ce 30E0      		ldi r19,hi8(0x3f800000)
 1223 01d0 40E8      		ldi r20,hlo8(0x3f800000)
 1224 01d2 5FE3      		ldi r21,hhi8(0x3f800000)
 1225 01d4 0E94 0000 		call __addsf3
 1226 01d8 5B01      		movw r10,r22
 1227 01da 6C01      		movw r12,r24
 1228 01dc C801      		movw r24,r16
 1229 01de B701      		movw r22,r14
 1230 01e0 20E0      		ldi r18,lo8(0x3f800000)
 1231 01e2 30E0      		ldi r19,hi8(0x3f800000)
 1232 01e4 40E8      		ldi r20,hlo8(0x3f800000)
 1233 01e6 5FE3      		ldi r21,hhi8(0x3f800000)
 1234 01e8 0E94 0000 		call __subsf3
 1235 01ec 9B01      		movw r18,r22
 1236 01ee AC01      		movw r20,r24
 1237 01f0 C601      		movw r24,r12
 1238 01f2 B501      		movw r22,r10
 1239 01f4 0E94 0000 		call __gtsf2
 1240 01f8 1816      		cp __zero_reg__,r24
 1241 01fa 04F0      		brlt .+2
 1242 01fc 00C0      		rjmp .L150
 1243 01fe E090 0000 		lds r14,border3+4
 1244 0202 F090 0000 		lds r15,(border3+4)+1
 1245 0206 0091 0000 		lds r16,(border3+4)+2
 1246 020a 1091 0000 		lds r17,(border3+4)+3
 1247 020e C401      		movw r24,r8
 1248 0210 B301      		movw r22,r6
 1249 0212 20E0      		ldi r18,lo8(0x3f800000)
 1250 0214 30E0      		ldi r19,hi8(0x3f800000)
 1251 0216 40E8      		ldi r20,hlo8(0x3f800000)
 1252 0218 5FE3      		ldi r21,hhi8(0x3f800000)
 1253 021a 0E94 0000 		call __subsf3
 1254 021e A801      		movw r20,r16
 1255 0220 9701      		movw r18,r14
 1256 0222 0E94 0000 		call __ltsf2
 1257 0226 8823      		tst r24
 1258 0228 04F4      		brge .L150
 1259               	.LSM83:
 1260 022a E880      		ld r14,Y
 1261 022c F980      		ldd r15,Y+1
 1262 022e 0A81      		ldd r16,Y+2
 1263 0230 1B81      		ldd r17,Y+3
 1264 0232 2091 0000 		lds r18,border3
 1265 0236 3091 0000 		lds r19,(border3)+1
 1266 023a 4091 0000 		lds r20,(border3)+2
 1267 023e 5091 0000 		lds r21,(border3)+3
 1268 0242 C801      		movw r24,r16
 1269 0244 B701      		movw r22,r14
 1270 0246 0E94 0000 		call __gesf2
 1271 024a 8823      		tst r24
 1272 024c 04F0      		brlt .L150
 1273 024e 2091 0000 		lds r18,border3+8
 1274 0252 3091 0000 		lds r19,(border3+8)+1
 1275 0256 4091 0000 		lds r20,(border3+8)+2
 1276 025a 5091 0000 		lds r21,(border3+8)+3
 1277 025e C801      		movw r24,r16
 1278 0260 B701      		movw r22,r14
 1279 0262 0E94 0000 		call __lesf2
 1280 0266 1816      		cp __zero_reg__,r24
 1281 0268 04F0      		brlt .L150
 1282               	.LSM84:
 1283 026a 8989      		ldd r24,Y+17
 1284 026c 9A89      		ldd r25,Y+18
 1285 026e AB89      		ldd r26,Y+19
 1286 0270 BC89      		ldd r27,Y+20
 1287 0272 B058      		subi r27,0x80
 1288 0274 898B      		std Y+17,r24
 1289 0276 9A8B      		std Y+18,r25
 1290 0278 AB8B      		std Y+19,r26
 1291 027a BC8B      		std Y+20,r27
 1292               	.L150:
 1293               	.LSM85:
 1294 027c 6C80      		ldd r6,Y+4
 1295 027e 7D80      		ldd r7,Y+5
 1296 0280 8E80      		ldd r8,Y+6
 1297 0282 9F80      		ldd r9,Y+7
 1298 0284 E090 0000 		lds r14,border4+4
 1299 0288 F090 0000 		lds r15,(border4+4)+1
 1300 028c 0091 0000 		lds r16,(border4+4)+2
 1301 0290 1091 0000 		lds r17,(border4+4)+3
 1302 0294 C401      		movw r24,r8
 1303 0296 B301      		movw r22,r6
 1304 0298 20E0      		ldi r18,lo8(0x3f800000)
 1305 029a 30E0      		ldi r19,hi8(0x3f800000)
 1306 029c 40E8      		ldi r20,hlo8(0x3f800000)
 1307 029e 5FE3      		ldi r21,hhi8(0x3f800000)
 1308 02a0 0E94 0000 		call __addsf3
 1309 02a4 5B01      		movw r10,r22
 1310 02a6 6C01      		movw r12,r24
 1311 02a8 C801      		movw r24,r16
 1312 02aa B701      		movw r22,r14
 1313 02ac 20E0      		ldi r18,lo8(0x3f800000)
 1314 02ae 30E0      		ldi r19,hi8(0x3f800000)
 1315 02b0 40E8      		ldi r20,hlo8(0x3f800000)
 1316 02b2 5FE3      		ldi r21,hhi8(0x3f800000)
 1317 02b4 0E94 0000 		call __subsf3
 1318 02b8 9B01      		movw r18,r22
 1319 02ba AC01      		movw r20,r24
 1320 02bc C601      		movw r24,r12
 1321 02be B501      		movw r22,r10
 1322 02c0 0E94 0000 		call __gtsf2
 1323 02c4 1816      		cp __zero_reg__,r24
 1324 02c6 04F0      		brlt .+2
 1325 02c8 00C0      		rjmp .L155
 1326 02ca E090 0000 		lds r14,border4+4
 1327 02ce F090 0000 		lds r15,(border4+4)+1
 1328 02d2 0091 0000 		lds r16,(border4+4)+2
 1329 02d6 1091 0000 		lds r17,(border4+4)+3
 1330 02da C401      		movw r24,r8
 1331 02dc B301      		movw r22,r6
 1332 02de 20E0      		ldi r18,lo8(0x3f800000)
 1333 02e0 30E0      		ldi r19,hi8(0x3f800000)
 1334 02e2 40E8      		ldi r20,hlo8(0x3f800000)
 1335 02e4 5FE3      		ldi r21,hhi8(0x3f800000)
 1336 02e6 0E94 0000 		call __subsf3
 1337 02ea A801      		movw r20,r16
 1338 02ec 9701      		movw r18,r14
 1339 02ee 0E94 0000 		call __ltsf2
 1340 02f2 8823      		tst r24
 1341 02f4 04F4      		brge .L155
 1342               	.LSM86:
 1343 02f6 E880      		ld r14,Y
 1344 02f8 F980      		ldd r15,Y+1
 1345 02fa 0A81      		ldd r16,Y+2
 1346 02fc 1B81      		ldd r17,Y+3
 1347 02fe 2091 0000 		lds r18,border4
 1348 0302 3091 0000 		lds r19,(border4)+1
 1349 0306 4091 0000 		lds r20,(border4)+2
 1350 030a 5091 0000 		lds r21,(border4)+3
 1351 030e C801      		movw r24,r16
 1352 0310 B701      		movw r22,r14
 1353 0312 0E94 0000 		call __gesf2
 1354 0316 8823      		tst r24
 1355 0318 04F0      		brlt .L155
 1356 031a 2091 0000 		lds r18,border4+8
 1357 031e 3091 0000 		lds r19,(border4+8)+1
 1358 0322 4091 0000 		lds r20,(border4+8)+2
 1359 0326 5091 0000 		lds r21,(border4+8)+3
 1360 032a C801      		movw r24,r16
 1361 032c B701      		movw r22,r14
 1362 032e 0E94 0000 		call __lesf2
 1363 0332 1816      		cp __zero_reg__,r24
 1364 0334 04F0      		brlt .L155
 1365               	.LSM87:
 1366 0336 8989      		ldd r24,Y+17
 1367 0338 9A89      		ldd r25,Y+18
 1368 033a AB89      		ldd r26,Y+19
 1369 033c BC89      		ldd r27,Y+20
 1370 033e B058      		subi r27,0x80
 1371 0340 898B      		std Y+17,r24
 1372 0342 9A8B      		std Y+18,r25
 1373 0344 AB8B      		std Y+19,r26
 1374 0346 BC8B      		std Y+20,r27
 1375               	.L155:
 1376               	.LSM88:
 1377 0348 6C80      		ldd r6,Y+4
 1378 034a 7D80      		ldd r7,Y+5
 1379 034c 8E80      		ldd r8,Y+6
 1380 034e 9F80      		ldd r9,Y+7
 1381 0350 E090 0000 		lds r14,border5+4
 1382 0354 F090 0000 		lds r15,(border5+4)+1
 1383 0358 0091 0000 		lds r16,(border5+4)+2
 1384 035c 1091 0000 		lds r17,(border5+4)+3
 1385 0360 C401      		movw r24,r8
 1386 0362 B301      		movw r22,r6
 1387 0364 20E0      		ldi r18,lo8(0x3f800000)
 1388 0366 30E0      		ldi r19,hi8(0x3f800000)
 1389 0368 40E8      		ldi r20,hlo8(0x3f800000)
 1390 036a 5FE3      		ldi r21,hhi8(0x3f800000)
 1391 036c 0E94 0000 		call __addsf3
 1392 0370 5B01      		movw r10,r22
 1393 0372 6C01      		movw r12,r24
 1394 0374 C801      		movw r24,r16
 1395 0376 B701      		movw r22,r14
 1396 0378 20E0      		ldi r18,lo8(0x3f800000)
 1397 037a 30E0      		ldi r19,hi8(0x3f800000)
 1398 037c 40E8      		ldi r20,hlo8(0x3f800000)
 1399 037e 5FE3      		ldi r21,hhi8(0x3f800000)
 1400 0380 0E94 0000 		call __subsf3
 1401 0384 9B01      		movw r18,r22
 1402 0386 AC01      		movw r20,r24
 1403 0388 C601      		movw r24,r12
 1404 038a B501      		movw r22,r10
 1405 038c 0E94 0000 		call __gtsf2
 1406 0390 1816      		cp __zero_reg__,r24
 1407 0392 04F0      		brlt .+2
 1408 0394 00C0      		rjmp .L160
 1409 0396 E090 0000 		lds r14,border5+4
 1410 039a F090 0000 		lds r15,(border5+4)+1
 1411 039e 0091 0000 		lds r16,(border5+4)+2
 1412 03a2 1091 0000 		lds r17,(border5+4)+3
 1413 03a6 C401      		movw r24,r8
 1414 03a8 B301      		movw r22,r6
 1415 03aa 20E0      		ldi r18,lo8(0x3f800000)
 1416 03ac 30E0      		ldi r19,hi8(0x3f800000)
 1417 03ae 40E8      		ldi r20,hlo8(0x3f800000)
 1418 03b0 5FE3      		ldi r21,hhi8(0x3f800000)
 1419 03b2 0E94 0000 		call __subsf3
 1420 03b6 A801      		movw r20,r16
 1421 03b8 9701      		movw r18,r14
 1422 03ba 0E94 0000 		call __ltsf2
 1423 03be 8823      		tst r24
 1424 03c0 04F4      		brge .L160
 1425               	.LSM89:
 1426 03c2 E880      		ld r14,Y
 1427 03c4 F980      		ldd r15,Y+1
 1428 03c6 0A81      		ldd r16,Y+2
 1429 03c8 1B81      		ldd r17,Y+3
 1430 03ca 2091 0000 		lds r18,border5
 1431 03ce 3091 0000 		lds r19,(border5)+1
 1432 03d2 4091 0000 		lds r20,(border5)+2
 1433 03d6 5091 0000 		lds r21,(border5)+3
 1434 03da C801      		movw r24,r16
 1435 03dc B701      		movw r22,r14
 1436 03de 0E94 0000 		call __gesf2
 1437 03e2 8823      		tst r24
 1438 03e4 04F0      		brlt .L160
 1439 03e6 2091 0000 		lds r18,border5+8
 1440 03ea 3091 0000 		lds r19,(border5+8)+1
 1441 03ee 4091 0000 		lds r20,(border5+8)+2
 1442 03f2 5091 0000 		lds r21,(border5+8)+3
 1443 03f6 C801      		movw r24,r16
 1444 03f8 B701      		movw r22,r14
 1445 03fa 0E94 0000 		call __lesf2
 1446 03fe 1816      		cp __zero_reg__,r24
 1447 0400 04F0      		brlt .L160
 1448               	.LSM90:
 1449 0402 8989      		ldd r24,Y+17
 1450 0404 9A89      		ldd r25,Y+18
 1451 0406 AB89      		ldd r26,Y+19
 1452 0408 BC89      		ldd r27,Y+20
 1453 040a B058      		subi r27,0x80
 1454 040c 898B      		std Y+17,r24
 1455 040e 9A8B      		std Y+18,r25
 1456 0410 AB8B      		std Y+19,r26
 1457 0412 BC8B      		std Y+20,r27
 1458               	.L160:
 1459               	.LSM91:
 1460 0414 6C80      		ldd r6,Y+4
 1461 0416 7D80      		ldd r7,Y+5
 1462 0418 8E80      		ldd r8,Y+6
 1463 041a 9F80      		ldd r9,Y+7
 1464 041c E090 0000 		lds r14,border6+4
 1465 0420 F090 0000 		lds r15,(border6+4)+1
 1466 0424 0091 0000 		lds r16,(border6+4)+2
 1467 0428 1091 0000 		lds r17,(border6+4)+3
 1468 042c C401      		movw r24,r8
 1469 042e B301      		movw r22,r6
 1470 0430 20E0      		ldi r18,lo8(0x3f800000)
 1471 0432 30E0      		ldi r19,hi8(0x3f800000)
 1472 0434 40E8      		ldi r20,hlo8(0x3f800000)
 1473 0436 5FE3      		ldi r21,hhi8(0x3f800000)
 1474 0438 0E94 0000 		call __addsf3
 1475 043c 5B01      		movw r10,r22
 1476 043e 6C01      		movw r12,r24
 1477 0440 C801      		movw r24,r16
 1478 0442 B701      		movw r22,r14
 1479 0444 20E0      		ldi r18,lo8(0x3f800000)
 1480 0446 30E0      		ldi r19,hi8(0x3f800000)
 1481 0448 40E8      		ldi r20,hlo8(0x3f800000)
 1482 044a 5FE3      		ldi r21,hhi8(0x3f800000)
 1483 044c 0E94 0000 		call __subsf3
 1484 0450 9B01      		movw r18,r22
 1485 0452 AC01      		movw r20,r24
 1486 0454 C601      		movw r24,r12
 1487 0456 B501      		movw r22,r10
 1488 0458 0E94 0000 		call __gtsf2
 1489 045c 1816      		cp __zero_reg__,r24
 1490 045e 04F0      		brlt .+2
 1491 0460 00C0      		rjmp .L165
 1492 0462 E090 0000 		lds r14,border6+4
 1493 0466 F090 0000 		lds r15,(border6+4)+1
 1494 046a 0091 0000 		lds r16,(border6+4)+2
 1495 046e 1091 0000 		lds r17,(border6+4)+3
 1496 0472 C401      		movw r24,r8
 1497 0474 B301      		movw r22,r6
 1498 0476 20E0      		ldi r18,lo8(0x3f800000)
 1499 0478 30E0      		ldi r19,hi8(0x3f800000)
 1500 047a 40E8      		ldi r20,hlo8(0x3f800000)
 1501 047c 5FE3      		ldi r21,hhi8(0x3f800000)
 1502 047e 0E94 0000 		call __subsf3
 1503 0482 A801      		movw r20,r16
 1504 0484 9701      		movw r18,r14
 1505 0486 0E94 0000 		call __ltsf2
 1506 048a 8823      		tst r24
 1507 048c 04F4      		brge .L165
 1508               	.LSM92:
 1509 048e E880      		ld r14,Y
 1510 0490 F980      		ldd r15,Y+1
 1511 0492 0A81      		ldd r16,Y+2
 1512 0494 1B81      		ldd r17,Y+3
 1513 0496 2091 0000 		lds r18,border6
 1514 049a 3091 0000 		lds r19,(border6)+1
 1515 049e 4091 0000 		lds r20,(border6)+2
 1516 04a2 5091 0000 		lds r21,(border6)+3
 1517 04a6 C801      		movw r24,r16
 1518 04a8 B701      		movw r22,r14
 1519 04aa 0E94 0000 		call __gesf2
 1520 04ae 8823      		tst r24
 1521 04b0 04F0      		brlt .L165
 1522 04b2 2091 0000 		lds r18,border6+8
 1523 04b6 3091 0000 		lds r19,(border6+8)+1
 1524 04ba 4091 0000 		lds r20,(border6+8)+2
 1525 04be 5091 0000 		lds r21,(border6+8)+3
 1526 04c2 C801      		movw r24,r16
 1527 04c4 B701      		movw r22,r14
 1528 04c6 0E94 0000 		call __lesf2
 1529 04ca 1816      		cp __zero_reg__,r24
 1530 04cc 04F0      		brlt .L165
 1531               	.LSM93:
 1532 04ce 8989      		ldd r24,Y+17
 1533 04d0 9A89      		ldd r25,Y+18
 1534 04d2 AB89      		ldd r26,Y+19
 1535 04d4 BC89      		ldd r27,Y+20
 1536 04d6 B058      		subi r27,0x80
 1537 04d8 898B      		std Y+17,r24
 1538 04da 9A8B      		std Y+18,r25
 1539 04dc AB8B      		std Y+19,r26
 1540 04de BC8B      		std Y+20,r27
 1541               	.L165:
 1542               	.LSM94:
 1543 04e0 6C80      		ldd r6,Y+4
 1544 04e2 7D80      		ldd r7,Y+5
 1545 04e4 8E80      		ldd r8,Y+6
 1546 04e6 9F80      		ldd r9,Y+7
 1547 04e8 E090 0000 		lds r14,border7+4
 1548 04ec F090 0000 		lds r15,(border7+4)+1
 1549 04f0 0091 0000 		lds r16,(border7+4)+2
 1550 04f4 1091 0000 		lds r17,(border7+4)+3
 1551 04f8 C401      		movw r24,r8
 1552 04fa B301      		movw r22,r6
 1553 04fc 20E0      		ldi r18,lo8(0x3f800000)
 1554 04fe 30E0      		ldi r19,hi8(0x3f800000)
 1555 0500 40E8      		ldi r20,hlo8(0x3f800000)
 1556 0502 5FE3      		ldi r21,hhi8(0x3f800000)
 1557 0504 0E94 0000 		call __addsf3
 1558 0508 5B01      		movw r10,r22
 1559 050a 6C01      		movw r12,r24
 1560 050c C801      		movw r24,r16
 1561 050e B701      		movw r22,r14
 1562 0510 20E0      		ldi r18,lo8(0x3f800000)
 1563 0512 30E0      		ldi r19,hi8(0x3f800000)
 1564 0514 40E8      		ldi r20,hlo8(0x3f800000)
 1565 0516 5FE3      		ldi r21,hhi8(0x3f800000)
 1566 0518 0E94 0000 		call __subsf3
 1567 051c 9B01      		movw r18,r22
 1568 051e AC01      		movw r20,r24
 1569 0520 C601      		movw r24,r12
 1570 0522 B501      		movw r22,r10
 1571 0524 0E94 0000 		call __gtsf2
 1572 0528 1816      		cp __zero_reg__,r24
 1573 052a 04F0      		brlt .+2
 1574 052c 00C0      		rjmp .L170
 1575 052e E090 0000 		lds r14,border7+4
 1576 0532 F090 0000 		lds r15,(border7+4)+1
 1577 0536 0091 0000 		lds r16,(border7+4)+2
 1578 053a 1091 0000 		lds r17,(border7+4)+3
 1579 053e C401      		movw r24,r8
 1580 0540 B301      		movw r22,r6
 1581 0542 20E0      		ldi r18,lo8(0x3f800000)
 1582 0544 30E0      		ldi r19,hi8(0x3f800000)
 1583 0546 40E8      		ldi r20,hlo8(0x3f800000)
 1584 0548 5FE3      		ldi r21,hhi8(0x3f800000)
 1585 054a 0E94 0000 		call __subsf3
 1586 054e 5B01      		movw r10,r22
 1587 0550 6C01      		movw r12,r24
 1588 0552 C801      		movw r24,r16
 1589 0554 B701      		movw r22,r14
 1590 0556 20E0      		ldi r18,lo8(0x3f800000)
 1591 0558 30E0      		ldi r19,hi8(0x3f800000)
 1592 055a 40E8      		ldi r20,hlo8(0x3f800000)
 1593 055c 5FE3      		ldi r21,hhi8(0x3f800000)
 1594 055e 0E94 0000 		call __addsf3
 1595 0562 9B01      		movw r18,r22
 1596 0564 AC01      		movw r20,r24
 1597 0566 C601      		movw r24,r12
 1598 0568 B501      		movw r22,r10
 1599 056a 0E94 0000 		call __ltsf2
 1600 056e 8823      		tst r24
 1601 0570 04F4      		brge .L170
 1602               	.LSM95:
 1603 0572 E880      		ld r14,Y
 1604 0574 F980      		ldd r15,Y+1
 1605 0576 0A81      		ldd r16,Y+2
 1606 0578 1B81      		ldd r17,Y+3
 1607 057a 2091 0000 		lds r18,border7
 1608 057e 3091 0000 		lds r19,(border7)+1
 1609 0582 4091 0000 		lds r20,(border7)+2
 1610 0586 5091 0000 		lds r21,(border7)+3
 1611 058a C801      		movw r24,r16
 1612 058c B701      		movw r22,r14
 1613 058e 0E94 0000 		call __gesf2
 1614 0592 8823      		tst r24
 1615 0594 04F0      		brlt .L170
 1616 0596 2091 0000 		lds r18,border7+8
 1617 059a 3091 0000 		lds r19,(border7+8)+1
 1618 059e 4091 0000 		lds r20,(border7+8)+2
 1619 05a2 5091 0000 		lds r21,(border7+8)+3
 1620 05a6 C801      		movw r24,r16
 1621 05a8 B701      		movw r22,r14
 1622 05aa 0E94 0000 		call __lesf2
 1623 05ae 1816      		cp __zero_reg__,r24
 1624 05b0 04F0      		brlt .L170
 1625               	.LSM96:
 1626 05b2 8989      		ldd r24,Y+17
 1627 05b4 9A89      		ldd r25,Y+18
 1628 05b6 AB89      		ldd r26,Y+19
 1629 05b8 BC89      		ldd r27,Y+20
 1630 05ba B058      		subi r27,0x80
 1631 05bc 898B      		std Y+17,r24
 1632 05be 9A8B      		std Y+18,r25
 1633 05c0 AB8B      		std Y+19,r26
 1634 05c2 BC8B      		std Y+20,r27
 1635               	.L170:
 1636               	.LSM97:
 1637 05c4 6C80      		ldd r6,Y+4
 1638 05c6 7D80      		ldd r7,Y+5
 1639 05c8 8E80      		ldd r8,Y+6
 1640 05ca 9F80      		ldd r9,Y+7
 1641 05cc E090 0000 		lds r14,border8+4
 1642 05d0 F090 0000 		lds r15,(border8+4)+1
 1643 05d4 0091 0000 		lds r16,(border8+4)+2
 1644 05d8 1091 0000 		lds r17,(border8+4)+3
 1645 05dc C401      		movw r24,r8
 1646 05de B301      		movw r22,r6
 1647 05e0 20E0      		ldi r18,lo8(0x3f800000)
 1648 05e2 30E0      		ldi r19,hi8(0x3f800000)
 1649 05e4 40E8      		ldi r20,hlo8(0x3f800000)
 1650 05e6 5FE3      		ldi r21,hhi8(0x3f800000)
 1651 05e8 0E94 0000 		call __addsf3
 1652 05ec 5B01      		movw r10,r22
 1653 05ee 6C01      		movw r12,r24
 1654 05f0 C801      		movw r24,r16
 1655 05f2 B701      		movw r22,r14
 1656 05f4 20E0      		ldi r18,lo8(0x3f800000)
 1657 05f6 30E0      		ldi r19,hi8(0x3f800000)
 1658 05f8 40E8      		ldi r20,hlo8(0x3f800000)
 1659 05fa 5FE3      		ldi r21,hhi8(0x3f800000)
 1660 05fc 0E94 0000 		call __subsf3
 1661 0600 9B01      		movw r18,r22
 1662 0602 AC01      		movw r20,r24
 1663 0604 C601      		movw r24,r12
 1664 0606 B501      		movw r22,r10
 1665 0608 0E94 0000 		call __gtsf2
 1666 060c 1816      		cp __zero_reg__,r24
 1667 060e 04F0      		brlt .+2
 1668 0610 00C0      		rjmp .L175
 1669 0612 E090 0000 		lds r14,border8+4
 1670 0616 F090 0000 		lds r15,(border8+4)+1
 1671 061a 0091 0000 		lds r16,(border8+4)+2
 1672 061e 1091 0000 		lds r17,(border8+4)+3
 1673 0622 C401      		movw r24,r8
 1674 0624 B301      		movw r22,r6
 1675 0626 20E0      		ldi r18,lo8(0x3f800000)
 1676 0628 30E0      		ldi r19,hi8(0x3f800000)
 1677 062a 40E8      		ldi r20,hlo8(0x3f800000)
 1678 062c 5FE3      		ldi r21,hhi8(0x3f800000)
 1679 062e 0E94 0000 		call __subsf3
 1680 0632 A801      		movw r20,r16
 1681 0634 9701      		movw r18,r14
 1682 0636 0E94 0000 		call __ltsf2
 1683 063a 8823      		tst r24
 1684 063c 04F4      		brge .L175
 1685               	.LSM98:
 1686 063e E880      		ld r14,Y
 1687 0640 F980      		ldd r15,Y+1
 1688 0642 0A81      		ldd r16,Y+2
 1689 0644 1B81      		ldd r17,Y+3
 1690 0646 2091 0000 		lds r18,border8
 1691 064a 3091 0000 		lds r19,(border8)+1
 1692 064e 4091 0000 		lds r20,(border8)+2
 1693 0652 5091 0000 		lds r21,(border8)+3
 1694 0656 C801      		movw r24,r16
 1695 0658 B701      		movw r22,r14
 1696 065a 0E94 0000 		call __gesf2
 1697 065e 8823      		tst r24
 1698 0660 04F0      		brlt .L175
 1699 0662 2091 0000 		lds r18,border8+8
 1700 0666 3091 0000 		lds r19,(border8+8)+1
 1701 066a 4091 0000 		lds r20,(border8+8)+2
 1702 066e 5091 0000 		lds r21,(border8+8)+3
 1703 0672 C801      		movw r24,r16
 1704 0674 B701      		movw r22,r14
 1705 0676 0E94 0000 		call __lesf2
 1706 067a 1816      		cp __zero_reg__,r24
 1707 067c 04F0      		brlt .L175
 1708               	.LSM99:
 1709 067e 8989      		ldd r24,Y+17
 1710 0680 9A89      		ldd r25,Y+18
 1711 0682 AB89      		ldd r26,Y+19
 1712 0684 BC89      		ldd r27,Y+20
 1713 0686 B058      		subi r27,0x80
 1714 0688 898B      		std Y+17,r24
 1715 068a 9A8B      		std Y+18,r25
 1716 068c AB8B      		std Y+19,r26
 1717 068e BC8B      		std Y+20,r27
 1718               	.L175:
 1719 0690 6596      		adiw r28,21
 1720               	.LSM100:
 1721 0692 80E0      		ldi r24,hi8(zombies+168)
 1722 0694 C030      		cpi r28,lo8(zombies+168)
 1723 0696 D807      		cpc r29,r24
 1724 0698 01F0      		breq .+2
 1725 069a 00C0      		rjmp .L180
 1726               	/* epilogue start */
 1727               	.LBE2:
 1728               	.LSM101:
 1729 069c DF91      		pop r29
 1730 069e CF91      		pop r28
 1731 06a0 1F91      		pop r17
 1732 06a2 0F91      		pop r16
 1733 06a4 FF90      		pop r15
 1734 06a6 EF90      		pop r14
 1735 06a8 DF90      		pop r13
 1736 06aa CF90      		pop r12
 1737 06ac BF90      		pop r11
 1738 06ae AF90      		pop r10
 1739 06b0 9F90      		pop r9
 1740 06b2 8F90      		pop r8
 1741 06b4 7F90      		pop r7
 1742 06b6 6F90      		pop r6
 1743 06b8 0895      		ret
 1744               	.LFE14:
 1746               		.section	.text.pit_collision,"ax",@progbits
 1747               	.global	pit_collision
 1749               	pit_collision:
 1750               	.LFB17:
 1751               	.LSM102:
 1752               	.LVL6:
 1753 0000 CF92      		push r12
 1754 0002 DF92      		push r13
 1755 0004 EF92      		push r14
 1756 0006 FF92      		push r15
 1757 0008 0F93      		push r16
 1758 000a 1F93      		push r17
 1759 000c CF93      		push r28
 1760 000e DF93      		push r29
 1761               	/* prologue: function */
 1762               	/* frame size = 0 */
 1763 0010 EC01      		movw r28,r24
 1764               	.LBB3:
 1765               	.LSM103:
 1766 0012 C090 0000 		lds r12,pit_points+2
 1767 0016 D090 0000 		lds r13,(pit_points+2)+1
 1768               	.LVL7:
 1769 001a 00C0      		rjmp .L216
 1770               	.LVL8:
 1771               	.L220:
 1772               	.LSM104:
 1773 001c B601      		movw r22,r12
 1774 001e 8827      		clr r24
 1775 0020 77FD      		sbrc r23,7
 1776 0022 8095      		com r24
 1777 0024 982F      		mov r25,r24
 1778               	.LVL9:
 1779 0026 0E94 0000 		call __floatsisf
 1780               	.LVL10:
 1781 002a 9B01      		movw r18,r22
 1782 002c AC01      		movw r20,r24
 1783 002e 6C81      		ldd r22,Y+4
 1784 0030 7D81      		ldd r23,Y+5
 1785 0032 8E81      		ldd r24,Y+6
 1786 0034 9F81      		ldd r25,Y+7
 1787 0036 0E94 0000 		call __eqsf2
 1788 003a 8823      		tst r24
 1789 003c 01F4      		brne .L217
 1790               	.LSM105:
 1791 003e E880      		ld r14,Y
 1792 0040 F980      		ldd r15,Y+1
 1793 0042 0A81      		ldd r16,Y+2
 1794 0044 1B81      		ldd r17,Y+3
 1795 0046 6091 0000 		lds r22,pit_points+4
 1796 004a 7091 0000 		lds r23,(pit_points+4)+1
 1797 004e 6F5F      		subi r22,lo8(-(1))
 1798 0050 7F4F      		sbci r23,hi8(-(1))
 1799 0052 8827      		clr r24
 1800 0054 77FD      		sbrc r23,7
 1801 0056 8095      		com r24
 1802 0058 982F      		mov r25,r24
 1803 005a 0E94 0000 		call __floatsisf
 1804 005e 9B01      		movw r18,r22
 1805 0060 AC01      		movw r20,r24
 1806 0062 C801      		movw r24,r16
 1807 0064 B701      		movw r22,r14
 1808 0066 0E94 0000 		call __eqsf2
 1809 006a 8823      		tst r24
 1810 006c 01F4      		brne .L217
 1811               	.LSM106:
 1812 006e C801      		movw r24,r16
 1813 0070 B701      		movw r22,r14
 1814 0072 20E0      		ldi r18,lo8(0x40a00000)
 1815 0074 30E0      		ldi r19,hi8(0x40a00000)
 1816 0076 40EA      		ldi r20,hlo8(0x40a00000)
 1817 0078 50E4      		ldi r21,hhi8(0x40a00000)
 1818 007a 0E94 0000 		call __subsf3
 1819 007e 6883      		st Y,r22
 1820 0080 7983      		std Y+1,r23
 1821 0082 8A83      		std Y+2,r24
 1822 0084 9B83      		std Y+3,r25
 1823               	.L217:
 1824               	.LSM107:
 1825 0086 0894      		sec
 1826 0088 C11C      		adc r12,__zero_reg__
 1827 008a D11C      		adc r13,__zero_reg__
 1828               	.LVL11:
 1829               	.L216:
 1830 008c 8091 0000 		lds r24,pit_points+6
 1831 0090 9091 0000 		lds r25,(pit_points+6)+1
 1832 0094 C816      		cp r12,r24
 1833 0096 D906      		cpc r13,r25
 1834 0098 04F0      		brlt .L220
 1835               	.LBE3:
 1836               	.LBB4:
 1837               	.LSM108:
 1838 009a C090 0000 		lds r12,pit_points+2
 1839 009e D090 0000 		lds r13,(pit_points+2)+1
 1840               	.LVL12:
 1841 00a2 00C0      		rjmp .L221
 1842               	.L225:
 1843               	.LSM109:
 1844 00a4 B601      		movw r22,r12
 1845 00a6 8827      		clr r24
 1846 00a8 77FD      		sbrc r23,7
 1847 00aa 8095      		com r24
 1848 00ac 982F      		mov r25,r24
 1849               	.LVL13:
 1850 00ae 0E94 0000 		call __floatsisf
 1851               	.LVL14:
 1852 00b2 9B01      		movw r18,r22
 1853 00b4 AC01      		movw r20,r24
 1854 00b6 6C81      		ldd r22,Y+4
 1855 00b8 7D81      		ldd r23,Y+5
 1856 00ba 8E81      		ldd r24,Y+6
 1857 00bc 9F81      		ldd r25,Y+7
 1858 00be 0E94 0000 		call __eqsf2
 1859 00c2 8823      		tst r24
 1860 00c4 01F4      		brne .L222
 1861               	.LSM110:
 1862 00c6 E880      		ld r14,Y
 1863 00c8 F980      		ldd r15,Y+1
 1864 00ca 0A81      		ldd r16,Y+2
 1865 00cc 1B81      		ldd r17,Y+3
 1866 00ce 6091 0000 		lds r22,pit_points
 1867 00d2 7091 0000 		lds r23,(pit_points)+1
 1868 00d6 6150      		subi r22,lo8(-(-1))
 1869 00d8 7040      		sbci r23,hi8(-(-1))
 1870 00da 8827      		clr r24
 1871 00dc 77FD      		sbrc r23,7
 1872 00de 8095      		com r24
 1873 00e0 982F      		mov r25,r24
 1874 00e2 0E94 0000 		call __floatsisf
 1875 00e6 9B01      		movw r18,r22
 1876 00e8 AC01      		movw r20,r24
 1877 00ea C801      		movw r24,r16
 1878 00ec B701      		movw r22,r14
 1879 00ee 0E94 0000 		call __eqsf2
 1880 00f2 8823      		tst r24
 1881 00f4 01F4      		brne .L222
 1882               	.LSM111:
 1883 00f6 C801      		movw r24,r16
 1884 00f8 B701      		movw r22,r14
 1885 00fa 20E0      		ldi r18,lo8(0x40a00000)
 1886 00fc 30E0      		ldi r19,hi8(0x40a00000)
 1887 00fe 40EA      		ldi r20,hlo8(0x40a00000)
 1888 0100 50E4      		ldi r21,hhi8(0x40a00000)
 1889 0102 0E94 0000 		call __addsf3
 1890 0106 6883      		st Y,r22
 1891 0108 7983      		std Y+1,r23
 1892 010a 8A83      		std Y+2,r24
 1893 010c 9B83      		std Y+3,r25
 1894               	.L222:
 1895               	.LSM112:
 1896 010e 0894      		sec
 1897 0110 C11C      		adc r12,__zero_reg__
 1898 0112 D11C      		adc r13,__zero_reg__
 1899               	.LVL15:
 1900               	.L221:
 1901 0114 8091 0000 		lds r24,pit_points+6
 1902 0118 9091 0000 		lds r25,(pit_points+6)+1
 1903 011c C816      		cp r12,r24
 1904 011e D906      		cpc r13,r25
 1905 0120 04F0      		brlt .L225
 1906               	.LBE4:
 1907               	.LBB5:
 1908               	.LSM113:
 1909 0122 C090 0000 		lds r12,pit_points
 1910 0126 D090 0000 		lds r13,(pit_points)+1
 1911               	.LVL16:
 1912 012a 00C0      		rjmp .L226
 1913               	.L230:
 1914               	.LSM114:
 1915 012c B601      		movw r22,r12
 1916 012e 8827      		clr r24
 1917 0130 77FD      		sbrc r23,7
 1918 0132 8095      		com r24
 1919 0134 982F      		mov r25,r24
 1920               	.LVL17:
 1921 0136 0E94 0000 		call __floatsisf
 1922               	.LVL18:
 1923 013a 9B01      		movw r18,r22
 1924 013c AC01      		movw r20,r24
 1925 013e 6881      		ld r22,Y
 1926 0140 7981      		ldd r23,Y+1
 1927 0142 8A81      		ldd r24,Y+2
 1928 0144 9B81      		ldd r25,Y+3
 1929 0146 0E94 0000 		call __eqsf2
 1930 014a 8823      		tst r24
 1931 014c 01F4      		brne .L227
 1932               	.LSM115:
 1933 014e EC80      		ldd r14,Y+4
 1934 0150 FD80      		ldd r15,Y+5
 1935 0152 0E81      		ldd r16,Y+6
 1936 0154 1F81      		ldd r17,Y+7
 1937 0156 6091 0000 		lds r22,pit_points+2
 1938 015a 7091 0000 		lds r23,(pit_points+2)+1
 1939 015e 6150      		subi r22,lo8(-(-1))
 1940 0160 7040      		sbci r23,hi8(-(-1))
 1941 0162 8827      		clr r24
 1942 0164 77FD      		sbrc r23,7
 1943 0166 8095      		com r24
 1944 0168 982F      		mov r25,r24
 1945 016a 0E94 0000 		call __floatsisf
 1946 016e 9B01      		movw r18,r22
 1947 0170 AC01      		movw r20,r24
 1948 0172 C801      		movw r24,r16
 1949 0174 B701      		movw r22,r14
 1950 0176 0E94 0000 		call __eqsf2
 1951 017a 8823      		tst r24
 1952 017c 01F4      		brne .L227
 1953               	.LSM116:
 1954 017e C801      		movw r24,r16
 1955 0180 B701      		movw r22,r14
 1956 0182 20E0      		ldi r18,lo8(0x40a00000)
 1957 0184 30E0      		ldi r19,hi8(0x40a00000)
 1958 0186 40EA      		ldi r20,hlo8(0x40a00000)
 1959 0188 50E4      		ldi r21,hhi8(0x40a00000)
 1960 018a 0E94 0000 		call __addsf3
 1961 018e 6C83      		std Y+4,r22
 1962 0190 7D83      		std Y+5,r23
 1963 0192 8E83      		std Y+6,r24
 1964 0194 9F83      		std Y+7,r25
 1965               	.L227:
 1966               	.LSM117:
 1967 0196 0894      		sec
 1968 0198 C11C      		adc r12,__zero_reg__
 1969 019a D11C      		adc r13,__zero_reg__
 1970               	.LVL19:
 1971               	.L226:
 1972 019c 8091 0000 		lds r24,pit_points+4
 1973 01a0 9091 0000 		lds r25,(pit_points+4)+1
 1974 01a4 C816      		cp r12,r24
 1975 01a6 D906      		cpc r13,r25
 1976 01a8 04F0      		brlt .L230
 1977               	.LBE5:
 1978               	.LBB6:
 1979               	.LSM118:
 1980 01aa C090 0000 		lds r12,pit_points
 1981 01ae D090 0000 		lds r13,(pit_points)+1
 1982               	.LVL20:
 1983 01b2 00C0      		rjmp .L231
 1984               	.L235:
 1985               	.LSM119:
 1986 01b4 B601      		movw r22,r12
 1987 01b6 8827      		clr r24
 1988 01b8 77FD      		sbrc r23,7
 1989 01ba 8095      		com r24
 1990 01bc 982F      		mov r25,r24
 1991               	.LVL21:
 1992 01be 0E94 0000 		call __floatsisf
 1993               	.LVL22:
 1994 01c2 9B01      		movw r18,r22
 1995 01c4 AC01      		movw r20,r24
 1996 01c6 6881      		ld r22,Y
 1997 01c8 7981      		ldd r23,Y+1
 1998 01ca 8A81      		ldd r24,Y+2
 1999 01cc 9B81      		ldd r25,Y+3
 2000 01ce 0E94 0000 		call __eqsf2
 2001 01d2 8823      		tst r24
 2002 01d4 01F4      		brne .L232
 2003               	.LSM120:
 2004 01d6 EC80      		ldd r14,Y+4
 2005 01d8 FD80      		ldd r15,Y+5
 2006 01da 0E81      		ldd r16,Y+6
 2007 01dc 1F81      		ldd r17,Y+7
 2008 01de 6091 0000 		lds r22,pit_points+6
 2009 01e2 7091 0000 		lds r23,(pit_points+6)+1
 2010 01e6 6F5F      		subi r22,lo8(-(1))
 2011 01e8 7F4F      		sbci r23,hi8(-(1))
 2012 01ea 8827      		clr r24
 2013 01ec 77FD      		sbrc r23,7
 2014 01ee 8095      		com r24
 2015 01f0 982F      		mov r25,r24
 2016 01f2 0E94 0000 		call __floatsisf
 2017 01f6 9B01      		movw r18,r22
 2018 01f8 AC01      		movw r20,r24
 2019 01fa C801      		movw r24,r16
 2020 01fc B701      		movw r22,r14
 2021 01fe 0E94 0000 		call __eqsf2
 2022 0202 8823      		tst r24
 2023 0204 01F4      		brne .L232
 2024               	.LSM121:
 2025 0206 C801      		movw r24,r16
 2026 0208 B701      		movw r22,r14
 2027 020a 20E0      		ldi r18,lo8(0x40a00000)
 2028 020c 30E0      		ldi r19,hi8(0x40a00000)
 2029 020e 40EA      		ldi r20,hlo8(0x40a00000)
 2030 0210 50E4      		ldi r21,hhi8(0x40a00000)
 2031 0212 0E94 0000 		call __subsf3
 2032 0216 6C83      		std Y+4,r22
 2033 0218 7D83      		std Y+5,r23
 2034 021a 8E83      		std Y+6,r24
 2035 021c 9F83      		std Y+7,r25
 2036               	.L232:
 2037               	.LSM122:
 2038 021e 0894      		sec
 2039 0220 C11C      		adc r12,__zero_reg__
 2040 0222 D11C      		adc r13,__zero_reg__
 2041               	.LVL23:
 2042               	.L231:
 2043 0224 8091 0000 		lds r24,pit_points+4
 2044 0228 9091 0000 		lds r25,(pit_points+4)+1
 2045 022c C816      		cp r12,r24
 2046 022e D906      		cpc r13,r25
 2047 0230 04F0      		brlt .L235
 2048               	.LBE6:
 2049               	.LSM123:
 2050 0232 E880      		ld r14,Y
 2051 0234 F980      		ldd r15,Y+1
 2052 0236 0A81      		ldd r16,Y+2
 2053 0238 1B81      		ldd r17,Y+3
 2054 023a 6091 0000 		lds r22,pit_points
 2055 023e 7091 0000 		lds r23,(pit_points)+1
 2056 0242 8827      		clr r24
 2057 0244 77FD      		sbrc r23,7
 2058 0246 8095      		com r24
 2059 0248 982F      		mov r25,r24
 2060 024a 0E94 0000 		call __floatsisf
 2061 024e 9B01      		movw r18,r22
 2062 0250 AC01      		movw r20,r24
 2063 0252 C801      		movw r24,r16
 2064 0254 B701      		movw r22,r14
 2065 0256 0E94 0000 		call __gtsf2
 2066 025a 1816      		cp __zero_reg__,r24
 2067 025c 04F0      		brlt .+2
 2068 025e 00C0      		rjmp .L236
 2069 0260 6091 0000 		lds r22,pit_points+4
 2070 0264 7091 0000 		lds r23,(pit_points+4)+1
 2071 0268 8827      		clr r24
 2072 026a 77FD      		sbrc r23,7
 2073 026c 8095      		com r24
 2074 026e 982F      		mov r25,r24
 2075 0270 0E94 0000 		call __floatsisf
 2076 0274 9B01      		movw r18,r22
 2077 0276 AC01      		movw r20,r24
 2078 0278 C801      		movw r24,r16
 2079 027a B701      		movw r22,r14
 2080 027c 0E94 0000 		call __ltsf2
 2081 0280 8823      		tst r24
 2082 0282 04F0      		brlt .+2
 2083 0284 00C0      		rjmp .L236
 2084               	.LSM124:
 2085 0286 EC80      		ldd r14,Y+4
 2086 0288 FD80      		ldd r15,Y+5
 2087 028a 0E81      		ldd r16,Y+6
 2088 028c 1F81      		ldd r17,Y+7
 2089 028e 6091 0000 		lds r22,pit_points+2
 2090 0292 7091 0000 		lds r23,(pit_points+2)+1
 2091 0296 6150      		subi r22,lo8(-(-1))
 2092 0298 7040      		sbci r23,hi8(-(-1))
 2093 029a 8827      		clr r24
 2094 029c 77FD      		sbrc r23,7
 2095 029e 8095      		com r24
 2096 02a0 982F      		mov r25,r24
 2097 02a2 0E94 0000 		call __floatsisf
 2098 02a6 9B01      		movw r18,r22
 2099 02a8 AC01      		movw r20,r24
 2100 02aa C801      		movw r24,r16
 2101 02ac B701      		movw r22,r14
 2102 02ae 0E94 0000 		call __gtsf2
 2103 02b2 1816      		cp __zero_reg__,r24
 2104 02b4 04F4      		brge .L239
 2105 02b6 6091 0000 		lds r22,pit_points+2
 2106 02ba 7091 0000 		lds r23,(pit_points+2)+1
 2107 02be 6F5F      		subi r22,lo8(-(1))
 2108 02c0 7F4F      		sbci r23,hi8(-(1))
 2109 02c2 8827      		clr r24
 2110 02c4 77FD      		sbrc r23,7
 2111 02c6 8095      		com r24
 2112 02c8 982F      		mov r25,r24
 2113 02ca 0E94 0000 		call __floatsisf
 2114 02ce 9B01      		movw r18,r22
 2115 02d0 AC01      		movw r20,r24
 2116 02d2 C801      		movw r24,r16
 2117 02d4 B701      		movw r22,r14
 2118 02d6 0E94 0000 		call __ltsf2
 2119 02da 87FD      		sbrc r24,7
 2120 02dc 00C0      		rjmp .L241
 2121               	.L239:
 2122 02de 6091 0000 		lds r22,pit_points+6
 2123 02e2 7091 0000 		lds r23,(pit_points+6)+1
 2124 02e6 6150      		subi r22,lo8(-(-1))
 2125 02e8 7040      		sbci r23,hi8(-(-1))
 2126 02ea 8827      		clr r24
 2127 02ec 77FD      		sbrc r23,7
 2128 02ee 8095      		com r24
 2129 02f0 982F      		mov r25,r24
 2130 02f2 0E94 0000 		call __floatsisf
 2131 02f6 9B01      		movw r18,r22
 2132 02f8 AC01      		movw r20,r24
 2133 02fa C801      		movw r24,r16
 2134 02fc B701      		movw r22,r14
 2135 02fe 0E94 0000 		call __gtsf2
 2136 0302 1816      		cp __zero_reg__,r24
 2137 0304 04F4      		brge .L236
 2138 0306 6091 0000 		lds r22,pit_points+6
 2139 030a 7091 0000 		lds r23,(pit_points+6)+1
 2140 030e 6F5F      		subi r22,lo8(-(1))
 2141 0310 7F4F      		sbci r23,hi8(-(1))
 2142 0312 8827      		clr r24
 2143 0314 77FD      		sbrc r23,7
 2144 0316 8095      		com r24
 2145 0318 982F      		mov r25,r24
 2146 031a 0E94 0000 		call __floatsisf
 2147 031e 9B01      		movw r18,r22
 2148 0320 AC01      		movw r20,r24
 2149 0322 C801      		movw r24,r16
 2150 0324 B701      		movw r22,r14
 2151 0326 0E94 0000 		call __ltsf2
 2152 032a 8823      		tst r24
 2153 032c 04F4      		brge .L236
 2154               	.L241:
 2155               	.LSM125:
 2156 032e 8989      		ldd r24,Y+17
 2157 0330 9A89      		ldd r25,Y+18
 2158 0332 AB89      		ldd r26,Y+19
 2159 0334 BC89      		ldd r27,Y+20
 2160 0336 B058      		subi r27,0x80
 2161 0338 898B      		std Y+17,r24
 2162 033a 9A8B      		std Y+18,r25
 2163 033c AB8B      		std Y+19,r26
 2164 033e BC8B      		std Y+20,r27
 2165               	.L236:
 2166               	.LSM126:
 2167 0340 EC80      		ldd r14,Y+4
 2168 0342 FD80      		ldd r15,Y+5
 2169 0344 0E81      		ldd r16,Y+6
 2170 0346 1F81      		ldd r17,Y+7
 2171 0348 6091 0000 		lds r22,pit_points+2
 2172 034c 7091 0000 		lds r23,(pit_points+2)+1
 2173 0350 8827      		clr r24
 2174 0352 77FD      		sbrc r23,7
 2175 0354 8095      		com r24
 2176 0356 982F      		mov r25,r24
 2177 0358 0E94 0000 		call __floatsisf
 2178 035c 9B01      		movw r18,r22
 2179 035e AC01      		movw r20,r24
 2180 0360 C801      		movw r24,r16
 2181 0362 B701      		movw r22,r14
 2182 0364 0E94 0000 		call __gtsf2
 2183 0368 1816      		cp __zero_reg__,r24
 2184 036a 04F0      		brlt .+2
 2185 036c 00C0      		rjmp .L252
 2186 036e 6091 0000 		lds r22,pit_points+6
 2187 0372 7091 0000 		lds r23,(pit_points+6)+1
 2188 0376 8827      		clr r24
 2189 0378 77FD      		sbrc r23,7
 2190 037a 8095      		com r24
 2191 037c 982F      		mov r25,r24
 2192 037e 0E94 0000 		call __floatsisf
 2193 0382 9B01      		movw r18,r22
 2194 0384 AC01      		movw r20,r24
 2195 0386 C801      		movw r24,r16
 2196 0388 B701      		movw r22,r14
 2197 038a 0E94 0000 		call __ltsf2
 2198 038e 8823      		tst r24
 2199 0390 04F0      		brlt .+2
 2200 0392 00C0      		rjmp .L252
 2201               	.LSM127:
 2202 0394 E880      		ld r14,Y
 2203 0396 F980      		ldd r15,Y+1
 2204 0398 0A81      		ldd r16,Y+2
 2205 039a 1B81      		ldd r17,Y+3
 2206 039c 6091 0000 		lds r22,pit_points
 2207 03a0 7091 0000 		lds r23,(pit_points)+1
 2208 03a4 6150      		subi r22,lo8(-(-1))
 2209 03a6 7040      		sbci r23,hi8(-(-1))
 2210 03a8 8827      		clr r24
 2211 03aa 77FD      		sbrc r23,7
 2212 03ac 8095      		com r24
 2213 03ae 982F      		mov r25,r24
 2214 03b0 0E94 0000 		call __floatsisf
 2215 03b4 9B01      		movw r18,r22
 2216 03b6 AC01      		movw r20,r24
 2217 03b8 C801      		movw r24,r16
 2218 03ba B701      		movw r22,r14
 2219 03bc 0E94 0000 		call __gtsf2
 2220 03c0 1816      		cp __zero_reg__,r24
 2221 03c2 04F4      		brge .L247
 2222 03c4 6091 0000 		lds r22,pit_points
 2223 03c8 7091 0000 		lds r23,(pit_points)+1
 2224 03cc 6F5F      		subi r22,lo8(-(1))
 2225 03ce 7F4F      		sbci r23,hi8(-(1))
 2226 03d0 8827      		clr r24
 2227 03d2 77FD      		sbrc r23,7
 2228 03d4 8095      		com r24
 2229 03d6 982F      		mov r25,r24
 2230 03d8 0E94 0000 		call __floatsisf
 2231 03dc 9B01      		movw r18,r22
 2232 03de AC01      		movw r20,r24
 2233 03e0 C801      		movw r24,r16
 2234 03e2 B701      		movw r22,r14
 2235 03e4 0E94 0000 		call __ltsf2
 2236 03e8 87FD      		sbrc r24,7
 2237 03ea 00C0      		rjmp .L249
 2238               	.L247:
 2239 03ec 6091 0000 		lds r22,pit_points+4
 2240 03f0 7091 0000 		lds r23,(pit_points+4)+1
 2241 03f4 6150      		subi r22,lo8(-(-1))
 2242 03f6 7040      		sbci r23,hi8(-(-1))
 2243 03f8 8827      		clr r24
 2244 03fa 77FD      		sbrc r23,7
 2245 03fc 8095      		com r24
 2246 03fe 982F      		mov r25,r24
 2247 0400 0E94 0000 		call __floatsisf
 2248 0404 9B01      		movw r18,r22
 2249 0406 AC01      		movw r20,r24
 2250 0408 C801      		movw r24,r16
 2251 040a B701      		movw r22,r14
 2252 040c 0E94 0000 		call __gtsf2
 2253 0410 1816      		cp __zero_reg__,r24
 2254 0412 04F4      		brge .L252
 2255 0414 6091 0000 		lds r22,pit_points+4
 2256 0418 7091 0000 		lds r23,(pit_points+4)+1
 2257 041c 6F5F      		subi r22,lo8(-(1))
 2258 041e 7F4F      		sbci r23,hi8(-(1))
 2259 0420 8827      		clr r24
 2260 0422 77FD      		sbrc r23,7
 2261 0424 8095      		com r24
 2262 0426 982F      		mov r25,r24
 2263 0428 0E94 0000 		call __floatsisf
 2264 042c 9B01      		movw r18,r22
 2265 042e AC01      		movw r20,r24
 2266 0430 C801      		movw r24,r16
 2267 0432 B701      		movw r22,r14
 2268 0434 0E94 0000 		call __ltsf2
 2269 0438 8823      		tst r24
 2270 043a 04F4      		brge .L252
 2271               	.L249:
 2272               	.LSM128:
 2273 043c 8D85      		ldd r24,Y+13
 2274 043e 9E85      		ldd r25,Y+14
 2275 0440 AF85      		ldd r26,Y+15
 2276 0442 B889      		ldd r27,Y+16
 2277 0444 B058      		subi r27,0x80
 2278 0446 8D87      		std Y+13,r24
 2279 0448 9E87      		std Y+14,r25
 2280 044a AF87      		std Y+15,r26
 2281 044c B88B      		std Y+16,r27
 2282               	.L252:
 2283               	/* epilogue start */
 2284               	.LSM129:
 2285 044e DF91      		pop r29
 2286 0450 CF91      		pop r28
 2287               	.LVL24:
 2288 0452 1F91      		pop r17
 2289 0454 0F91      		pop r16
 2290 0456 FF90      		pop r15
 2291 0458 EF90      		pop r14
 2292 045a DF90      		pop r13
 2293 045c CF90      		pop r12
 2294               	.LVL25:
 2295 045e 0895      		ret
 2296               	.LFE17:
 2298               		.section	.text.hero_collision,"ax",@progbits
 2299               	.global	hero_collision
 2301               	hero_collision:
 2302               	.LFB18:
 2303               	.LSM130:
 2304               	/* prologue: function */
 2305               	/* frame size = 0 */
 2306               	.LSM131:
 2307 0000 8091 0000 		lds r24,jumpingCount
 2308 0004 9091 0000 		lds r25,(jumpingCount)+1
 2309 0008 1816      		cp __zero_reg__,r24
 2310 000a 1906      		cpc __zero_reg__,r25
 2311 000c 04F0      		brlt .L271
 2312               	.LSM132:
 2313 000e 80E0      		ldi r24,lo8(sprite)
 2314 0010 90E0      		ldi r25,hi8(sprite)
 2315 0012 0E94 0000 		call pit_collision
 2316               	.L271:
 2317 0016 0895      		ret
 2318               	.LFE18:
 2320               		.section	.text.__vector_9,"ax",@progbits
 2321               	.global	__vector_9
 2323               	__vector_9:
 2324               	.LFB25:
 2325               	.LSM133:
 2326 0000 1F92      		push __zero_reg__
 2327 0002 0F92      		push r0
 2328 0004 0FB6      		in r0,__SREG__
 2329 0006 0F92      		push r0
 2330 0008 1124      		clr __zero_reg__
 2331 000a EF92      		push r14
 2332 000c FF92      		push r15
 2333 000e 0F93      		push r16
 2334 0010 1F93      		push r17
 2335 0012 2F93      		push r18
 2336 0014 3F93      		push r19
 2337 0016 4F93      		push r20
 2338 0018 5F93      		push r21
 2339 001a 6F93      		push r22
 2340 001c 7F93      		push r23
 2341 001e 8F93      		push r24
 2342 0020 9F93      		push r25
 2343 0022 AF93      		push r26
 2344 0024 BF93      		push r27
 2345 0026 EF93      		push r30
 2346 0028 FF93      		push r31
 2347               	/* prologue: Signal */
 2348               	/* frame size = 0 */
 2349               	.LSM134:
 2350 002a 8091 0000 		lds r24,pincount
 2351 002e 9091 0000 		lds r25,(pincount)+1
 2352 0032 0196      		adiw r24,1
 2353 0034 9093 0000 		sts (pincount)+1,r25
 2354 0038 8093 0000 		sts pincount,r24
 2355               	.LSM135:
 2356 003c 8091 0000 		lds r24,gameOver
 2357 0040 9091 0000 		lds r25,(gameOver)+1
 2358 0044 892B      		or r24,r25
 2359 0046 01F0      		breq .+2
 2360 0048 00C0      		rjmp .L298
 2361               	.LSM136:
 2362 004a 8091 0000 		lds r24,stage
 2363 004e 9091 0000 		lds r25,(stage)+1
 2364 0052 892B      		or r24,r25
 2365 0054 01F4      		brne .L274
 2366               	.LSM137:
 2367 0056 189B      		sbis 35-32,0
 2368 0058 00C0      		rjmp .L275
 2369               	.LSM138:
 2370 005a 81E0      		ldi r24,lo8(1)
 2371 005c 90E0      		ldi r25,hi8(1)
 2372 005e 9093 0000 		sts (chosen)+1,r25
 2373 0062 8093 0000 		sts chosen,r24
 2374               	.L275:
 2375               	.LSM139:
 2376 0066 83B1      		in r24,35-32
 2377 0068 8695      		lsr r24
 2378 006a 80FF      		sbrs r24,0
 2379 006c 00C0      		rjmp .L276
 2380               	.LSM140:
 2381 006e 8091 0000 		lds r24,choice
 2382 0072 9091 0000 		lds r25,(choice)+1
 2383 0076 0197      		sbiw r24,1
 2384 0078 01F4      		brne .L277
 2385               	.LSM141:
 2386 007a 82E0      		ldi r24,lo8(2)
 2387 007c 90E0      		ldi r25,hi8(2)
 2388 007e 9093 0000 		sts (choice)+1,r25
 2389 0082 8093 0000 		sts choice,r24
 2390               	.LSM142:
 2391 0086 80E2      		ldi r24,lo8(32)
 2392 0088 62E2      		ldi r22,lo8(34)
 2393 008a 44E1      		ldi r20,lo8(20)
 2394 008c 0E94 0000 		call draw_character
 2395               	.LSM143:
 2396 0090 8AE2      		ldi r24,lo8(42)
 2397 0092 00C0      		rjmp .L313
 2398               	.L277:
 2399               	.LSM144:
 2400 0094 8091 0000 		lds r24,choice
 2401 0098 9091 0000 		lds r25,(choice)+1
 2402 009c 0297      		sbiw r24,2
 2403 009e 01F4      		brne .L276
 2404               	.LSM145:
 2405 00a0 81E0      		ldi r24,lo8(1)
 2406 00a2 90E0      		ldi r25,hi8(1)
 2407 00a4 9093 0000 		sts (choice)+1,r25
 2408 00a8 8093 0000 		sts choice,r24
 2409               	.LSM146:
 2410 00ac 8AE2      		ldi r24,lo8(42)
 2411 00ae 62E2      		ldi r22,lo8(34)
 2412 00b0 44E1      		ldi r20,lo8(20)
 2413 00b2 0E94 0000 		call draw_character
 2414               	.LSM147:
 2415 00b6 80E2      		ldi r24,lo8(32)
 2416               	.L313:
 2417 00b8 60E0      		ldi r22,lo8(0)
 2418 00ba 44E1      		ldi r20,lo8(20)
 2419 00bc 0E94 0000 		call draw_character
 2420               	.LSM148:
 2421 00c0 0E94 0000 		call refresh
 2422               	.L276:
 2423               	.LSM149:
 2424 00c4 0E94 0000 		call refresh
 2425               	.L274:
 2426               	.LSM150:
 2427 00c8 8091 0000 		lds r24,stage
 2428 00cc 9091 0000 		lds r25,(stage)+1
 2429 00d0 8130      		cpi r24,1
 2430 00d2 9105      		cpc r25,__zero_reg__
 2431 00d4 01F0      		breq .+2
 2432 00d6 00C0      		rjmp .L298
 2433               	.LSM151:
 2434 00d8 1092 0000 		sts (buttonPressed)+1,__zero_reg__
 2435 00dc 1092 0000 		sts buttonPressed,__zero_reg__
 2436               	.LSM152:
 2437 00e0 189B      		sbis 35-32,0
 2438 00e2 00C0      		rjmp .L278
 2439               	.LSM153:
 2440 00e4 9093 0000 		sts (buttonPressed)+1,r25
 2441 00e8 8093 0000 		sts buttonPressed,r24
 2442               	.L278:
 2443               	.LSM154:
 2444 00ec 83B1      		in r24,35-32
 2445 00ee 8695      		lsr r24
 2446 00f0 80FF      		sbrs r24,0
 2447 00f2 00C0      		rjmp .L279
 2448               	.LSM155:
 2449 00f4 8091 0000 		lds r24,buttonPressed
 2450 00f8 9091 0000 		lds r25,(buttonPressed)+1
 2451 00fc 892B      		or r24,r25
 2452 00fe 01F0      		breq .L280
 2453               	.LSM156:
 2454 0100 83E0      		ldi r24,lo8(3)
 2455 0102 90E0      		ldi r25,hi8(3)
 2456 0104 00C0      		rjmp .L314
 2457               	.L280:
 2458               	.LSM157:
 2459 0106 82E0      		ldi r24,lo8(2)
 2460 0108 90E0      		ldi r25,hi8(2)
 2461               	.L314:
 2462 010a 9093 0000 		sts (buttonPressed)+1,r25
 2463 010e 8093 0000 		sts buttonPressed,r24
 2464               	.L279:
 2465               	.LSM158:
 2466 0112 8091 0000 		lds r24,buttonPressed
 2467 0116 9091 0000 		lds r25,(buttonPressed)+1
 2468 011a 0197      		sbiw r24,1
 2469 011c 01F4      		brne .L281
 2470               	.LSM159:
 2471 011e E090 0000 		lds r14,sprite+13
 2472 0122 F090 0000 		lds r15,(sprite+13)+1
 2473 0126 0091 0000 		lds r16,(sprite+13)+2
 2474 012a 1091 0000 		lds r17,(sprite+13)+3
 2475 012e C801      		movw r24,r16
 2476 0130 B701      		movw r22,r14
 2477 0132 20E0      		ldi r18,lo8(0x3f800000)
 2478 0134 30E0      		ldi r19,hi8(0x3f800000)
 2479 0136 40E8      		ldi r20,hlo8(0x3f800000)
 2480 0138 5FE3      		ldi r21,hhi8(0x3f800000)
 2481 013a 0E94 0000 		call __eqsf2
 2482 013e 8823      		tst r24
 2483 0140 01F4      		brne .+2
 2484 0142 00C0      		rjmp .L316
 2485               	.L307:
 2486               	.LSM160:
 2487 0144 C801      		movw r24,r16
 2488 0146 B701      		movw r22,r14
 2489 0148 20E0      		ldi r18,lo8(0xbf800000)
 2490 014a 30E0      		ldi r19,hi8(0xbf800000)
 2491 014c 40E8      		ldi r20,hlo8(0xbf800000)
 2492 014e 5FEB      		ldi r21,hhi8(0xbf800000)
 2493 0150 0E94 0000 		call __eqsf2
 2494 0154 8823      		tst r24
 2495 0156 01F0      		breq .L317
 2496               	.L308:
 2497               	.LSM161:
 2498 0158 E090 0000 		lds r14,sprite+17
 2499 015c F090 0000 		lds r15,(sprite+17)+1
 2500 0160 0091 0000 		lds r16,(sprite+17)+2
 2501 0164 1091 0000 		lds r17,(sprite+17)+3
 2502 0168 C801      		movw r24,r16
 2503 016a B701      		movw r22,r14
 2504 016c 20E0      		ldi r18,lo8(0x3f800000)
 2505 016e 30E0      		ldi r19,hi8(0x3f800000)
 2506 0170 40E8      		ldi r20,hlo8(0x3f800000)
 2507 0172 5FE3      		ldi r21,hhi8(0x3f800000)
 2508 0174 0E94 0000 		call __eqsf2
 2509 0178 8823      		tst r24
 2510 017a 01F4      		brne .+2
 2511 017c 00C0      		rjmp .L320
 2512               	.L309:
 2513               	.LSM162:
 2514 017e C801      		movw r24,r16
 2515 0180 B701      		movw r22,r14
 2516 0182 20E0      		ldi r18,lo8(0xbf800000)
 2517 0184 30E0      		ldi r19,hi8(0xbf800000)
 2518 0186 40E8      		ldi r20,hlo8(0xbf800000)
 2519 0188 5FEB      		ldi r21,hhi8(0xbf800000)
 2520 018a 0E94 0000 		call __eqsf2
 2521 018e 8823      		tst r24
 2522 0190 01F0      		breq .+2
 2523 0192 00C0      		rjmp .L284
 2524 0194 00C0      		rjmp .L319
 2525               	.L281:
 2526               	.LSM163:
 2527 0196 8091 0000 		lds r24,buttonPressed
 2528 019a 9091 0000 		lds r25,(buttonPressed)+1
 2529 019e 0297      		sbiw r24,2
 2530 01a0 01F0      		breq .+2
 2531 01a2 00C0      		rjmp .L284
 2532               	.LSM164:
 2533 01a4 E090 0000 		lds r14,sprite+13
 2534 01a8 F090 0000 		lds r15,(sprite+13)+1
 2535 01ac 0091 0000 		lds r16,(sprite+13)+2
 2536 01b0 1091 0000 		lds r17,(sprite+13)+3
 2537 01b4 C801      		movw r24,r16
 2538 01b6 B701      		movw r22,r14
 2539 01b8 20E0      		ldi r18,lo8(0x3f800000)
 2540 01ba 30E0      		ldi r19,hi8(0x3f800000)
 2541 01bc 40E8      		ldi r20,hlo8(0x3f800000)
 2542 01be 5FE3      		ldi r21,hhi8(0x3f800000)
 2543 01c0 0E94 0000 		call __eqsf2
 2544 01c4 8823      		tst r24
 2545 01c6 01F4      		brne .L310
 2546               	.L317:
 2547               	.LSM165:
 2548 01c8 80E0      		ldi r24,lo8(0x0)
 2549 01ca 90E0      		ldi r25,hi8(0x0)
 2550 01cc A0E0      		ldi r26,hlo8(0x0)
 2551 01ce B0E0      		ldi r27,hhi8(0x0)
 2552 01d0 8093 0000 		sts sprite+13,r24
 2553 01d4 9093 0000 		sts (sprite+13)+1,r25
 2554 01d8 A093 0000 		sts (sprite+13)+2,r26
 2555 01dc B093 0000 		sts (sprite+13)+3,r27
 2556               	.LSM166:
 2557 01e0 80E0      		ldi r24,lo8(0x3f800000)
 2558 01e2 90E0      		ldi r25,hi8(0x3f800000)
 2559 01e4 A0E8      		ldi r26,hlo8(0x3f800000)
 2560 01e6 BFE3      		ldi r27,hhi8(0x3f800000)
 2561 01e8 00C0      		rjmp .L315
 2562               	.L310:
 2563               	.LSM167:
 2564 01ea C801      		movw r24,r16
 2565 01ec B701      		movw r22,r14
 2566 01ee 20E0      		ldi r18,lo8(0xbf800000)
 2567 01f0 30E0      		ldi r19,hi8(0xbf800000)
 2568 01f2 40E8      		ldi r20,hlo8(0xbf800000)
 2569 01f4 5FEB      		ldi r21,hhi8(0xbf800000)
 2570 01f6 0E94 0000 		call __eqsf2
 2571 01fa 8823      		tst r24
 2572 01fc 01F4      		brne .L311
 2573               	.L316:
 2574               	.LSM168:
 2575 01fe 80E0      		ldi r24,lo8(0x0)
 2576 0200 90E0      		ldi r25,hi8(0x0)
 2577 0202 A0E0      		ldi r26,hlo8(0x0)
 2578 0204 B0E0      		ldi r27,hhi8(0x0)
 2579 0206 8093 0000 		sts sprite+13,r24
 2580 020a 9093 0000 		sts (sprite+13)+1,r25
 2581 020e A093 0000 		sts (sprite+13)+2,r26
 2582 0212 B093 0000 		sts (sprite+13)+3,r27
 2583               	.LSM169:
 2584 0216 80E0      		ldi r24,lo8(0xbf800000)
 2585 0218 90E0      		ldi r25,hi8(0xbf800000)
 2586 021a A0E8      		ldi r26,hlo8(0xbf800000)
 2587 021c BFEB      		ldi r27,hhi8(0xbf800000)
 2588 021e 00C0      		rjmp .L315
 2589               	.L311:
 2590               	.LSM170:
 2591 0220 E090 0000 		lds r14,sprite+17
 2592 0224 F090 0000 		lds r15,(sprite+17)+1
 2593 0228 0091 0000 		lds r16,(sprite+17)+2
 2594 022c 1091 0000 		lds r17,(sprite+17)+3
 2595 0230 C801      		movw r24,r16
 2596 0232 B701      		movw r22,r14
 2597 0234 20E0      		ldi r18,lo8(0x3f800000)
 2598 0236 30E0      		ldi r19,hi8(0x3f800000)
 2599 0238 40E8      		ldi r20,hlo8(0x3f800000)
 2600 023a 5FE3      		ldi r21,hhi8(0x3f800000)
 2601 023c 0E94 0000 		call __eqsf2
 2602 0240 8823      		tst r24
 2603 0242 01F4      		brne .L312
 2604               	.L319:
 2605               	.LSM171:
 2606 0244 80E0      		ldi r24,lo8(0xbf800000)
 2607 0246 90E0      		ldi r25,hi8(0xbf800000)
 2608 0248 A0E8      		ldi r26,hlo8(0xbf800000)
 2609 024a BFEB      		ldi r27,hhi8(0xbf800000)
 2610 024c 00C0      		rjmp .L318
 2611               	.L312:
 2612               	.LSM172:
 2613 024e C801      		movw r24,r16
 2614 0250 B701      		movw r22,r14
 2615 0252 20E0      		ldi r18,lo8(0xbf800000)
 2616 0254 30E0      		ldi r19,hi8(0xbf800000)
 2617 0256 40E8      		ldi r20,hlo8(0xbf800000)
 2618 0258 5FEB      		ldi r21,hhi8(0xbf800000)
 2619 025a 0E94 0000 		call __eqsf2
 2620 025e 8823      		tst r24
 2621 0260 01F4      		brne .L284
 2622               	.L320:
 2623               	.LSM173:
 2624 0262 80E0      		ldi r24,lo8(0x3f800000)
 2625 0264 90E0      		ldi r25,hi8(0x3f800000)
 2626 0266 A0E8      		ldi r26,hlo8(0x3f800000)
 2627 0268 BFE3      		ldi r27,hhi8(0x3f800000)
 2628               	.L318:
 2629 026a 8093 0000 		sts sprite+13,r24
 2630 026e 9093 0000 		sts (sprite+13)+1,r25
 2631 0272 A093 0000 		sts (sprite+13)+2,r26
 2632 0276 B093 0000 		sts (sprite+13)+3,r27
 2633               	.LSM174:
 2634 027a 80E0      		ldi r24,lo8(0x0)
 2635 027c 90E0      		ldi r25,hi8(0x0)
 2636 027e A0E0      		ldi r26,hlo8(0x0)
 2637 0280 B0E0      		ldi r27,hhi8(0x0)
 2638               	.L315:
 2639 0282 8093 0000 		sts sprite+17,r24
 2640 0286 9093 0000 		sts (sprite+17)+1,r25
 2641 028a A093 0000 		sts (sprite+17)+2,r26
 2642 028e B093 0000 		sts (sprite+17)+3,r27
 2643               	.L284:
 2644               	.LSM175:
 2645 0292 189B      		sbis 35-32,0
 2646 0294 00C0      		rjmp .L297
 2647               	.LSM176:
 2648 0296 83B1      		in r24,35-32
 2649 0298 8695      		lsr r24
 2650 029a 80FF      		sbrs r24,0
 2651 029c 00C0      		rjmp .L297
 2652               	.LSM177:
 2653 029e 8AE0      		ldi r24,lo8(10)
 2654 02a0 90E0      		ldi r25,hi8(10)
 2655 02a2 9093 0000 		sts (jumpingCount)+1,r25
 2656 02a6 8093 0000 		sts jumpingCount,r24
 2657               	.L297:
 2658               	.LSM178:
 2659 02aa 0E94 0000 		call refresh
 2660               	.L298:
 2661               	/* epilogue start */
 2662               	.LSM179:
 2663 02ae FF91      		pop r31
 2664 02b0 EF91      		pop r30
 2665 02b2 BF91      		pop r27
 2666 02b4 AF91      		pop r26
 2667 02b6 9F91      		pop r25
 2668 02b8 8F91      		pop r24
 2669 02ba 7F91      		pop r23
 2670 02bc 6F91      		pop r22
 2671 02be 5F91      		pop r21
 2672 02c0 4F91      		pop r20
 2673 02c2 3F91      		pop r19
 2674 02c4 2F91      		pop r18
 2675 02c6 1F91      		pop r17
 2676 02c8 0F91      		pop r16
 2677 02ca FF90      		pop r15
 2678 02cc EF90      		pop r14
 2679 02ce 0F90      		pop r0
 2680 02d0 0FBE      		out __SREG__,r0
 2681 02d2 0F90      		pop r0
 2682 02d4 1F90      		pop __zero_reg__
 2683 02d6 1895      		reti
 2684               	.LFE25:
 2686               		.section	.text.draw_stage,"ax",@progbits
 2687               	.global	draw_stage
 2689               	draw_stage:
 2690               	.LFB24:
 2691               	.LSM180:
 2692 0000 2F92      		push r2
 2693 0002 3F92      		push r3
 2694 0004 4F92      		push r4
 2695 0006 5F92      		push r5
 2696 0008 6F92      		push r6
 2697 000a 7F92      		push r7
 2698 000c 8F92      		push r8
 2699 000e 9F92      		push r9
 2700 0010 AF92      		push r10
 2701 0012 BF92      		push r11
 2702 0014 CF92      		push r12
 2703 0016 DF92      		push r13
 2704 0018 EF92      		push r14
 2705 001a FF92      		push r15
 2706 001c 0F93      		push r16
 2707 001e 1F93      		push r17
 2708 0020 DF93      		push r29
 2709 0022 CF93      		push r28
 2710 0024 CDB7      		in r28,__SP_L__
 2711 0026 DEB7      		in r29,__SP_H__
 2712 0028 A097      		sbiw r28,32
 2713 002a 0FB6      		in __tmp_reg__,__SREG__
 2714 002c F894      		cli
 2715 002e DEBF      		out __SP_H__,r29
 2716 0030 0FBE      		out __SREG__,__tmp_reg__
 2717 0032 CDBF      		out __SP_L__,r28
 2718               	/* prologue: function */
 2719               	/* frame size = 32 */
 2720               	.LSM181:
 2721 0034 6091 0000 		lds r22,border1
 2722 0038 7091 0000 		lds r23,(border1)+1
 2723 003c 8091 0000 		lds r24,(border1)+2
 2724 0040 9091 0000 		lds r25,(border1)+3
 2725 0044 E090 0000 		lds r14,border1+4
 2726 0048 F090 0000 		lds r15,(border1+4)+1
 2727 004c 0091 0000 		lds r16,(border1+4)+2
 2728 0050 1091 0000 		lds r17,(border1+4)+3
 2729 0054 A090 0000 		lds r10,border1+8
 2730 0058 B090 0000 		lds r11,(border1+8)+1
 2731 005c C090 0000 		lds r12,(border1+8)+2
 2732 0060 D090 0000 		lds r13,(border1+8)+3
 2733 0064 2090 0000 		lds r2,border1+12
 2734 0068 3090 0000 		lds r3,(border1+12)+1
 2735 006c 4090 0000 		lds r4,(border1+12)+2
 2736 0070 5090 0000 		lds r5,(border1+12)+3
 2737 0074 0E94 0000 		call __fixunssfsi
 2738 0078 6983      		std Y+1,r22
 2739 007a 7A83      		std Y+2,r23
 2740 007c 8B83      		std Y+3,r24
 2741 007e 9C83      		std Y+4,r25
 2742 0080 C801      		movw r24,r16
 2743 0082 B701      		movw r22,r14
 2744 0084 0E94 0000 		call __fixunssfsi
 2745 0088 3B01      		movw r6,r22
 2746 008a 4C01      		movw r8,r24
 2747 008c C601      		movw r24,r12
 2748 008e B501      		movw r22,r10
 2749 0090 0E94 0000 		call __fixunssfsi
 2750 0094 6B01      		movw r12,r22
 2751 0096 7C01      		movw r14,r24
 2752 0098 C201      		movw r24,r4
 2753 009a B101      		movw r22,r2
 2754 009c 0E94 0000 		call __fixunssfsi
 2755 00a0 8B01      		movw r16,r22
 2756 00a2 9C01      		movw r18,r24
 2757 00a4 8981      		ldd r24,Y+1
 2758 00a6 662D      		mov r22,r6
 2759 00a8 4C2D      		mov r20,r12
 2760 00aa 202F      		mov r18,r16
 2761 00ac 0E94 0000 		call draw_line
 2762               	.LSM182:
 2763 00b0 6091 0000 		lds r22,border2
 2764 00b4 7091 0000 		lds r23,(border2)+1
 2765 00b8 8091 0000 		lds r24,(border2)+2
 2766 00bc 9091 0000 		lds r25,(border2)+3
 2767 00c0 E090 0000 		lds r14,border2+4
 2768 00c4 F090 0000 		lds r15,(border2+4)+1
 2769 00c8 0091 0000 		lds r16,(border2+4)+2
 2770 00cc 1091 0000 		lds r17,(border2+4)+3
 2771 00d0 A090 0000 		lds r10,border2+8
 2772 00d4 B090 0000 		lds r11,(border2+8)+1
 2773 00d8 C090 0000 		lds r12,(border2+8)+2
 2774 00dc D090 0000 		lds r13,(border2+8)+3
 2775 00e0 2090 0000 		lds r2,border2+12
 2776 00e4 3090 0000 		lds r3,(border2+12)+1
 2777 00e8 4090 0000 		lds r4,(border2+12)+2
 2778 00ec 5090 0000 		lds r5,(border2+12)+3
 2779 00f0 0E94 0000 		call __fixunssfsi
 2780 00f4 6D83      		std Y+5,r22
 2781 00f6 7E83      		std Y+6,r23
 2782 00f8 8F83      		std Y+7,r24
 2783 00fa 9887      		std Y+8,r25
 2784 00fc C801      		movw r24,r16
 2785 00fe B701      		movw r22,r14
 2786 0100 0E94 0000 		call __fixunssfsi
 2787 0104 3B01      		movw r6,r22
 2788 0106 4C01      		movw r8,r24
 2789 0108 C601      		movw r24,r12
 2790 010a B501      		movw r22,r10
 2791 010c 0E94 0000 		call __fixunssfsi
 2792 0110 6B01      		movw r12,r22
 2793 0112 7C01      		movw r14,r24
 2794 0114 C201      		movw r24,r4
 2795 0116 B101      		movw r22,r2
 2796 0118 0E94 0000 		call __fixunssfsi
 2797 011c 8B01      		movw r16,r22
 2798 011e 9C01      		movw r18,r24
 2799 0120 8D81      		ldd r24,Y+5
 2800 0122 662D      		mov r22,r6
 2801 0124 4C2D      		mov r20,r12
 2802 0126 202F      		mov r18,r16
 2803 0128 0E94 0000 		call draw_line
 2804               	.LSM183:
 2805 012c 6091 0000 		lds r22,border3
 2806 0130 7091 0000 		lds r23,(border3)+1
 2807 0134 8091 0000 		lds r24,(border3)+2
 2808 0138 9091 0000 		lds r25,(border3)+3
 2809 013c E090 0000 		lds r14,border3+4
 2810 0140 F090 0000 		lds r15,(border3+4)+1
 2811 0144 0091 0000 		lds r16,(border3+4)+2
 2812 0148 1091 0000 		lds r17,(border3+4)+3
 2813 014c A090 0000 		lds r10,border3+8
 2814 0150 B090 0000 		lds r11,(border3+8)+1
 2815 0154 C090 0000 		lds r12,(border3+8)+2
 2816 0158 D090 0000 		lds r13,(border3+8)+3
 2817 015c 2090 0000 		lds r2,border3+12
 2818 0160 3090 0000 		lds r3,(border3+12)+1
 2819 0164 4090 0000 		lds r4,(border3+12)+2
 2820 0168 5090 0000 		lds r5,(border3+12)+3
 2821 016c 0E94 0000 		call __fixunssfsi
 2822 0170 6987      		std Y+9,r22
 2823 0172 7A87      		std Y+10,r23
 2824 0174 8B87      		std Y+11,r24
 2825 0176 9C87      		std Y+12,r25
 2826 0178 C801      		movw r24,r16
 2827 017a B701      		movw r22,r14
 2828 017c 0E94 0000 		call __fixunssfsi
 2829 0180 3B01      		movw r6,r22
 2830 0182 4C01      		movw r8,r24
 2831 0184 C601      		movw r24,r12
 2832 0186 B501      		movw r22,r10
 2833 0188 0E94 0000 		call __fixunssfsi
 2834 018c 6B01      		movw r12,r22
 2835 018e 7C01      		movw r14,r24
 2836 0190 C201      		movw r24,r4
 2837 0192 B101      		movw r22,r2
 2838 0194 0E94 0000 		call __fixunssfsi
 2839 0198 8B01      		movw r16,r22
 2840 019a 9C01      		movw r18,r24
 2841 019c 8985      		ldd r24,Y+9
 2842 019e 662D      		mov r22,r6
 2843 01a0 4C2D      		mov r20,r12
 2844 01a2 202F      		mov r18,r16
 2845 01a4 0E94 0000 		call draw_line
 2846               	.LSM184:
 2847 01a8 6091 0000 		lds r22,border4
 2848 01ac 7091 0000 		lds r23,(border4)+1
 2849 01b0 8091 0000 		lds r24,(border4)+2
 2850 01b4 9091 0000 		lds r25,(border4)+3
 2851 01b8 E090 0000 		lds r14,border4+4
 2852 01bc F090 0000 		lds r15,(border4+4)+1
 2853 01c0 0091 0000 		lds r16,(border4+4)+2
 2854 01c4 1091 0000 		lds r17,(border4+4)+3
 2855 01c8 A090 0000 		lds r10,border4+8
 2856 01cc B090 0000 		lds r11,(border4+8)+1
 2857 01d0 C090 0000 		lds r12,(border4+8)+2
 2858 01d4 D090 0000 		lds r13,(border4+8)+3
 2859 01d8 2090 0000 		lds r2,border4+12
 2860 01dc 3090 0000 		lds r3,(border4+12)+1
 2861 01e0 4090 0000 		lds r4,(border4+12)+2
 2862 01e4 5090 0000 		lds r5,(border4+12)+3
 2863 01e8 0E94 0000 		call __fixunssfsi
 2864 01ec 6D87      		std Y+13,r22
 2865 01ee 7E87      		std Y+14,r23
 2866 01f0 8F87      		std Y+15,r24
 2867 01f2 988B      		std Y+16,r25
 2868 01f4 C801      		movw r24,r16
 2869 01f6 B701      		movw r22,r14
 2870 01f8 0E94 0000 		call __fixunssfsi
 2871 01fc 3B01      		movw r6,r22
 2872 01fe 4C01      		movw r8,r24
 2873 0200 C601      		movw r24,r12
 2874 0202 B501      		movw r22,r10
 2875 0204 0E94 0000 		call __fixunssfsi
 2876 0208 6B01      		movw r12,r22
 2877 020a 7C01      		movw r14,r24
 2878 020c C201      		movw r24,r4
 2879 020e B101      		movw r22,r2
 2880 0210 0E94 0000 		call __fixunssfsi
 2881 0214 8B01      		movw r16,r22
 2882 0216 9C01      		movw r18,r24
 2883 0218 8D85      		ldd r24,Y+13
 2884 021a 662D      		mov r22,r6
 2885 021c 4C2D      		mov r20,r12
 2886 021e 202F      		mov r18,r16
 2887 0220 0E94 0000 		call draw_line
 2888               	.LSM185:
 2889 0224 6091 0000 		lds r22,border5
 2890 0228 7091 0000 		lds r23,(border5)+1
 2891 022c 8091 0000 		lds r24,(border5)+2
 2892 0230 9091 0000 		lds r25,(border5)+3
 2893 0234 E090 0000 		lds r14,border5+4
 2894 0238 F090 0000 		lds r15,(border5+4)+1
 2895 023c 0091 0000 		lds r16,(border5+4)+2
 2896 0240 1091 0000 		lds r17,(border5+4)+3
 2897 0244 A090 0000 		lds r10,border5+8
 2898 0248 B090 0000 		lds r11,(border5+8)+1
 2899 024c C090 0000 		lds r12,(border5+8)+2
 2900 0250 D090 0000 		lds r13,(border5+8)+3
 2901 0254 2090 0000 		lds r2,border5+12
 2902 0258 3090 0000 		lds r3,(border5+12)+1
 2903 025c 4090 0000 		lds r4,(border5+12)+2
 2904 0260 5090 0000 		lds r5,(border5+12)+3
 2905 0264 0E94 0000 		call __fixunssfsi
 2906 0268 698B      		std Y+17,r22
 2907 026a 7A8B      		std Y+18,r23
 2908 026c 8B8B      		std Y+19,r24
 2909 026e 9C8B      		std Y+20,r25
 2910 0270 C801      		movw r24,r16
 2911 0272 B701      		movw r22,r14
 2912 0274 0E94 0000 		call __fixunssfsi
 2913 0278 3B01      		movw r6,r22
 2914 027a 4C01      		movw r8,r24
 2915 027c C601      		movw r24,r12
 2916 027e B501      		movw r22,r10
 2917 0280 0E94 0000 		call __fixunssfsi
 2918 0284 6B01      		movw r12,r22
 2919 0286 7C01      		movw r14,r24
 2920 0288 C201      		movw r24,r4
 2921 028a B101      		movw r22,r2
 2922 028c 0E94 0000 		call __fixunssfsi
 2923 0290 8B01      		movw r16,r22
 2924 0292 9C01      		movw r18,r24
 2925 0294 8989      		ldd r24,Y+17
 2926 0296 662D      		mov r22,r6
 2927 0298 4C2D      		mov r20,r12
 2928 029a 202F      		mov r18,r16
 2929 029c 0E94 0000 		call draw_line
 2930               	.LSM186:
 2931 02a0 6091 0000 		lds r22,border6
 2932 02a4 7091 0000 		lds r23,(border6)+1
 2933 02a8 8091 0000 		lds r24,(border6)+2
 2934 02ac 9091 0000 		lds r25,(border6)+3
 2935 02b0 E090 0000 		lds r14,border6+4
 2936 02b4 F090 0000 		lds r15,(border6+4)+1
 2937 02b8 0091 0000 		lds r16,(border6+4)+2
 2938 02bc 1091 0000 		lds r17,(border6+4)+3
 2939 02c0 A090 0000 		lds r10,border6+8
 2940 02c4 B090 0000 		lds r11,(border6+8)+1
 2941 02c8 C090 0000 		lds r12,(border6+8)+2
 2942 02cc D090 0000 		lds r13,(border6+8)+3
 2943 02d0 2090 0000 		lds r2,border6+12
 2944 02d4 3090 0000 		lds r3,(border6+12)+1
 2945 02d8 4090 0000 		lds r4,(border6+12)+2
 2946 02dc 5090 0000 		lds r5,(border6+12)+3
 2947 02e0 0E94 0000 		call __fixunssfsi
 2948 02e4 6D8B      		std Y+21,r22
 2949 02e6 7E8B      		std Y+22,r23
 2950 02e8 8F8B      		std Y+23,r24
 2951 02ea 988F      		std Y+24,r25
 2952 02ec C801      		movw r24,r16
 2953 02ee B701      		movw r22,r14
 2954 02f0 0E94 0000 		call __fixunssfsi
 2955 02f4 3B01      		movw r6,r22
 2956 02f6 4C01      		movw r8,r24
 2957 02f8 C601      		movw r24,r12
 2958 02fa B501      		movw r22,r10
 2959 02fc 0E94 0000 		call __fixunssfsi
 2960 0300 6B01      		movw r12,r22
 2961 0302 7C01      		movw r14,r24
 2962 0304 C201      		movw r24,r4
 2963 0306 B101      		movw r22,r2
 2964 0308 0E94 0000 		call __fixunssfsi
 2965 030c 8B01      		movw r16,r22
 2966 030e 9C01      		movw r18,r24
 2967 0310 8D89      		ldd r24,Y+21
 2968 0312 662D      		mov r22,r6
 2969 0314 4C2D      		mov r20,r12
 2970 0316 202F      		mov r18,r16
 2971 0318 0E94 0000 		call draw_line
 2972               	.LSM187:
 2973 031c 6091 0000 		lds r22,border7
 2974 0320 7091 0000 		lds r23,(border7)+1
 2975 0324 8091 0000 		lds r24,(border7)+2
 2976 0328 9091 0000 		lds r25,(border7)+3
 2977 032c E090 0000 		lds r14,border7+4
 2978 0330 F090 0000 		lds r15,(border7+4)+1
 2979 0334 0091 0000 		lds r16,(border7+4)+2
 2980 0338 1091 0000 		lds r17,(border7+4)+3
 2981 033c A090 0000 		lds r10,border7+8
 2982 0340 B090 0000 		lds r11,(border7+8)+1
 2983 0344 C090 0000 		lds r12,(border7+8)+2
 2984 0348 D090 0000 		lds r13,(border7+8)+3
 2985 034c 2090 0000 		lds r2,border7+12
 2986 0350 3090 0000 		lds r3,(border7+12)+1
 2987 0354 4090 0000 		lds r4,(border7+12)+2
 2988 0358 5090 0000 		lds r5,(border7+12)+3
 2989 035c 0E94 0000 		call __fixunssfsi
 2990 0360 698F      		std Y+25,r22
 2991 0362 7A8F      		std Y+26,r23
 2992 0364 8B8F      		std Y+27,r24
 2993 0366 9C8F      		std Y+28,r25
 2994 0368 C801      		movw r24,r16
 2995 036a B701      		movw r22,r14
 2996 036c 0E94 0000 		call __fixunssfsi
 2997 0370 3B01      		movw r6,r22
 2998 0372 4C01      		movw r8,r24
 2999 0374 C601      		movw r24,r12
 3000 0376 B501      		movw r22,r10
 3001 0378 0E94 0000 		call __fixunssfsi
 3002 037c 6B01      		movw r12,r22
 3003 037e 7C01      		movw r14,r24
 3004 0380 C201      		movw r24,r4
 3005 0382 B101      		movw r22,r2
 3006 0384 0E94 0000 		call __fixunssfsi
 3007 0388 8B01      		movw r16,r22
 3008 038a 9C01      		movw r18,r24
 3009 038c 898D      		ldd r24,Y+25
 3010 038e 662D      		mov r22,r6
 3011 0390 4C2D      		mov r20,r12
 3012 0392 202F      		mov r18,r16
 3013 0394 0E94 0000 		call draw_line
 3014               	.LSM188:
 3015 0398 6091 0000 		lds r22,border8
 3016 039c 7091 0000 		lds r23,(border8)+1
 3017 03a0 8091 0000 		lds r24,(border8)+2
 3018 03a4 9091 0000 		lds r25,(border8)+3
 3019 03a8 E090 0000 		lds r14,border8+4
 3020 03ac F090 0000 		lds r15,(border8+4)+1
 3021 03b0 0091 0000 		lds r16,(border8+4)+2
 3022 03b4 1091 0000 		lds r17,(border8+4)+3
 3023 03b8 A090 0000 		lds r10,border8+8
 3024 03bc B090 0000 		lds r11,(border8+8)+1
 3025 03c0 C090 0000 		lds r12,(border8+8)+2
 3026 03c4 D090 0000 		lds r13,(border8+8)+3
 3027 03c8 2090 0000 		lds r2,border8+12
 3028 03cc 3090 0000 		lds r3,(border8+12)+1
 3029 03d0 4090 0000 		lds r4,(border8+12)+2
 3030 03d4 5090 0000 		lds r5,(border8+12)+3
 3031 03d8 0E94 0000 		call __fixunssfsi
 3032 03dc 6D8F      		std Y+29,r22
 3033 03de 7E8F      		std Y+30,r23
 3034 03e0 8F8F      		std Y+31,r24
 3035 03e2 98A3      		std Y+32,r25
 3036 03e4 C801      		movw r24,r16
 3037 03e6 B701      		movw r22,r14
 3038 03e8 0E94 0000 		call __fixunssfsi
 3039 03ec 3B01      		movw r6,r22
 3040 03ee 4C01      		movw r8,r24
 3041 03f0 C601      		movw r24,r12
 3042 03f2 B501      		movw r22,r10
 3043 03f4 0E94 0000 		call __fixunssfsi
 3044 03f8 6B01      		movw r12,r22
 3045 03fa 7C01      		movw r14,r24
 3046 03fc C201      		movw r24,r4
 3047 03fe B101      		movw r22,r2
 3048 0400 0E94 0000 		call __fixunssfsi
 3049 0404 8B01      		movw r16,r22
 3050 0406 9C01      		movw r18,r24
 3051 0408 8D8D      		ldd r24,Y+29
 3052 040a 662D      		mov r22,r6
 3053 040c 4C2D      		mov r20,r12
 3054 040e 202F      		mov r18,r16
 3055 0410 0E94 0000 		call draw_line
 3056               	/* epilogue start */
 3057               	.LSM189:
 3058 0414 A096      		adiw r28,32
 3059 0416 0FB6      		in __tmp_reg__,__SREG__
 3060 0418 F894      		cli
 3061 041a DEBF      		out __SP_H__,r29
 3062 041c 0FBE      		out __SREG__,__tmp_reg__
 3063 041e CDBF      		out __SP_L__,r28
 3064 0420 CF91      		pop r28
 3065 0422 DF91      		pop r29
 3066 0424 1F91      		pop r17
 3067 0426 0F91      		pop r16
 3068 0428 FF90      		pop r15
 3069 042a EF90      		pop r14
 3070 042c DF90      		pop r13
 3071 042e CF90      		pop r12
 3072 0430 BF90      		pop r11
 3073 0432 AF90      		pop r10
 3074 0434 9F90      		pop r9
 3075 0436 8F90      		pop r8
 3076 0438 7F90      		pop r7
 3077 043a 6F90      		pop r6
 3078 043c 5F90      		pop r5
 3079 043e 4F90      		pop r4
 3080 0440 3F90      		pop r3
 3081 0442 2F90      		pop r2
 3082 0444 0895      		ret
 3083               	.LFE24:
 3085               		.section	.text.draw_pit,"ax",@progbits
 3086               	.global	draw_pit
 3088               	draw_pit:
 3089               	.LFB21:
 3090               	.LSM190:
 3091               	/* prologue: function */
 3092               	/* frame size = 0 */
 3093               	.LSM191:
 3094 0000 8091 0000 		lds r24,pit_points
 3095 0004 9091 0000 		lds r25,(pit_points)+1
 3096 0008 6091 0000 		lds r22,pit_points+2
 3097 000c 7091 0000 		lds r23,(pit_points+2)+1
 3098 0010 4091 0000 		lds r20,pit_points+4
 3099 0014 5091 0000 		lds r21,(pit_points+4)+1
 3100 0018 2091 0000 		lds r18,pit_points+2
 3101 001c 3091 0000 		lds r19,(pit_points+2)+1
 3102 0020 0E94 0000 		call draw_line
 3103               	.LSM192:
 3104 0024 8091 0000 		lds r24,pit_points
 3105 0028 9091 0000 		lds r25,(pit_points)+1
 3106 002c 6091 0000 		lds r22,pit_points+2
 3107 0030 7091 0000 		lds r23,(pit_points+2)+1
 3108 0034 4091 0000 		lds r20,pit_points
 3109 0038 5091 0000 		lds r21,(pit_points)+1
 3110 003c 2091 0000 		lds r18,pit_points+6
 3111 0040 3091 0000 		lds r19,(pit_points+6)+1
 3112 0044 0E94 0000 		call draw_line
 3113               	.LSM193:
 3114 0048 8091 0000 		lds r24,pit_points
 3115 004c 9091 0000 		lds r25,(pit_points)+1
 3116 0050 6091 0000 		lds r22,pit_points+6
 3117 0054 7091 0000 		lds r23,(pit_points+6)+1
 3118 0058 4091 0000 		lds r20,pit_points+4
 3119 005c 5091 0000 		lds r21,(pit_points+4)+1
 3120 0060 2091 0000 		lds r18,pit_points+6
 3121 0064 3091 0000 		lds r19,(pit_points+6)+1
 3122 0068 0E94 0000 		call draw_line
 3123               	.LSM194:
 3124 006c 8091 0000 		lds r24,pit_points+4
 3125 0070 9091 0000 		lds r25,(pit_points+4)+1
 3126 0074 6091 0000 		lds r22,pit_points+2
 3127 0078 7091 0000 		lds r23,(pit_points+2)+1
 3128 007c 4091 0000 		lds r20,pit_points+4
 3129 0080 5091 0000 		lds r21,(pit_points+4)+1
 3130 0084 2091 0000 		lds r18,pit_points+6
 3131 0088 3091 0000 		lds r19,(pit_points+6)+1
 3132 008c 0E94 0000 		call draw_line
 3133               	/* epilogue start */
 3134               	.LSM195:
 3135 0090 0895      		ret
 3136               	.LFE21:
 3138               		.section	.text.update_zombies,"ax",@progbits
 3139               	.global	update_zombies
 3141               	update_zombies:
 3142               	.LFB19:
 3143               	.LSM196:
 3144 0000 CF92      		push r12
 3145 0002 DF92      		push r13
 3146 0004 EF92      		push r14
 3147 0006 FF92      		push r15
 3148 0008 0F93      		push r16
 3149 000a 1F93      		push r17
 3150 000c CF93      		push r28
 3151 000e DF93      		push r29
 3152               	/* prologue: function */
 3153               	/* frame size = 0 */
 3154               	.LSM197:
 3155 0010 C0E0      		ldi r28,lo8(zombies)
 3156 0012 D0E0      		ldi r29,hi8(zombies)
 3157               	.LBB7:
 3158               	.LSM198:
 3159 0014 93E5      		ldi r25,lo8(83)
 3160 0016 C92E      		mov r12,r25
 3161 0018 D12C      		mov r13,__zero_reg__
 3162               	.LSM199:
 3163 001a 8FE2      		ldi r24,lo8(47)
 3164 001c E82E      		mov r14,r24
 3165 001e F12C      		mov r15,__zero_reg__
 3166               	.L334:
 3167               	.LBE7:
 3168               	.LSM200:
 3169 0020 1C2F      		mov r17,r28
 3170 0022 0D2F      		mov r16,r29
 3171               	.LBB8:
 3172               	.LSM201:
 3173 0024 CE01      		movw r24,r28
 3174 0026 0E94 0000 		call update_sprite
 3175               	.LSM202:
 3176 002a 6881      		ld r22,Y
 3177 002c 7981      		ldd r23,Y+1
 3178 002e 8A81      		ldd r24,Y+2
 3179 0030 9B81      		ldd r25,Y+3
 3180 0032 20E0      		ldi r18,lo8(0x41800000)
 3181 0034 30E0      		ldi r19,hi8(0x41800000)
 3182 0036 40E8      		ldi r20,hlo8(0x41800000)
 3183 0038 51E4      		ldi r21,hhi8(0x41800000)
 3184 003a 0E94 0000 		call __ltsf2
 3185 003e 8823      		tst r24
 3186 0040 04F4      		brge .L326
 3187               	.LSM203:
 3188 0042 8D85      		ldd r24,Y+13
 3189 0044 9E85      		ldd r25,Y+14
 3190 0046 AF85      		ldd r26,Y+15
 3191 0048 B889      		ldd r27,Y+16
 3192 004a B058      		subi r27,0x80
 3193 004c 8D87      		std Y+13,r24
 3194 004e 9E87      		std Y+14,r25
 3195 0050 AF87      		std Y+15,r26
 3196 0052 B88B      		std Y+16,r27
 3197               	.L326:
 3198               	.LSM204:
 3199 0054 8885      		ldd r24,Y+8
 3200 0056 B601      		movw r22,r12
 3201 0058 681B      		sub r22,r24
 3202 005a 7109      		sbc r23,__zero_reg__
 3203 005c 8827      		clr r24
 3204 005e 77FD      		sbrc r23,7
 3205 0060 8095      		com r24
 3206 0062 982F      		mov r25,r24
 3207 0064 0E94 0000 		call __floatsisf
 3208 0068 9B01      		movw r18,r22
 3209 006a AC01      		movw r20,r24
 3210 006c 6881      		ld r22,Y
 3211 006e 7981      		ldd r23,Y+1
 3212 0070 8A81      		ldd r24,Y+2
 3213 0072 9B81      		ldd r25,Y+3
 3214 0074 0E94 0000 		call __gtsf2
 3215 0078 1816      		cp __zero_reg__,r24
 3216 007a 04F4      		brge .L328
 3217               	.LSM205:
 3218 007c 8D85      		ldd r24,Y+13
 3219 007e 9E85      		ldd r25,Y+14
 3220 0080 AF85      		ldd r26,Y+15
 3221 0082 B889      		ldd r27,Y+16
 3222 0084 B058      		subi r27,0x80
 3223 0086 8D87      		std Y+13,r24
 3224 0088 9E87      		std Y+14,r25
 3225 008a AF87      		std Y+15,r26
 3226 008c B88B      		std Y+16,r27
 3227               	.L328:
 3228               	.LSM206:
 3229 008e 6C81      		ldd r22,Y+4
 3230 0090 7D81      		ldd r23,Y+5
 3231 0092 8E81      		ldd r24,Y+6
 3232 0094 9F81      		ldd r25,Y+7
 3233 0096 20E0      		ldi r18,lo8(0x3f800000)
 3234 0098 30E0      		ldi r19,hi8(0x3f800000)
 3235 009a 40E8      		ldi r20,hlo8(0x3f800000)
 3236 009c 5FE3      		ldi r21,hhi8(0x3f800000)
 3237 009e 0E94 0000 		call __ltsf2
 3238 00a2 8823      		tst r24
 3239 00a4 04F4      		brge .L330
 3240               	.LSM207:
 3241 00a6 8989      		ldd r24,Y+17
 3242 00a8 9A89      		ldd r25,Y+18
 3243 00aa AB89      		ldd r26,Y+19
 3244 00ac BC89      		ldd r27,Y+20
 3245 00ae B058      		subi r27,0x80
 3246 00b0 898B      		std Y+17,r24
 3247 00b2 9A8B      		std Y+18,r25
 3248 00b4 AB8B      		std Y+19,r26
 3249 00b6 BC8B      		std Y+20,r27
 3250               	.L330:
 3251               	.LSM208:
 3252 00b8 8985      		ldd r24,Y+9
 3253 00ba B701      		movw r22,r14
 3254 00bc 681B      		sub r22,r24
 3255 00be 7109      		sbc r23,__zero_reg__
 3256 00c0 8827      		clr r24
 3257 00c2 77FD      		sbrc r23,7
 3258 00c4 8095      		com r24
 3259 00c6 982F      		mov r25,r24
 3260 00c8 0E94 0000 		call __floatsisf
 3261 00cc 9B01      		movw r18,r22
 3262 00ce AC01      		movw r20,r24
 3263 00d0 6C81      		ldd r22,Y+4
 3264 00d2 7D81      		ldd r23,Y+5
 3265 00d4 8E81      		ldd r24,Y+6
 3266 00d6 9F81      		ldd r25,Y+7
 3267 00d8 0E94 0000 		call __gtsf2
 3268 00dc 1816      		cp __zero_reg__,r24
 3269 00de 04F4      		brge .L332
 3270               	.LSM209:
 3271 00e0 8989      		ldd r24,Y+17
 3272 00e2 9A89      		ldd r25,Y+18
 3273 00e4 AB89      		ldd r26,Y+19
 3274 00e6 BC89      		ldd r27,Y+20
 3275 00e8 B058      		subi r27,0x80
 3276 00ea 898B      		std Y+17,r24
 3277 00ec 9A8B      		std Y+18,r25
 3278 00ee AB8B      		std Y+19,r26
 3279 00f0 BC8B      		std Y+20,r27
 3280               	.L332:
 3281               	.LSM210:
 3282 00f2 812F      		mov r24,r17
 3283 00f4 902F      		mov r25,r16
 3284 00f6 0E94 0000 		call draw_sprite
 3285 00fa 6596      		adiw r28,21
 3286               	.LSM211:
 3287 00fc 80E0      		ldi r24,hi8(zombies+168)
 3288 00fe C030      		cpi r28,lo8(zombies+168)
 3289 0100 D807      		cpc r29,r24
 3290 0102 01F0      		breq .+2
 3291 0104 00C0      		rjmp .L334
 3292               	/* epilogue start */
 3293               	.LBE8:
 3294               	.LSM212:
 3295 0106 DF91      		pop r29
 3296 0108 CF91      		pop r28
 3297 010a 1F91      		pop r17
 3298 010c 0F91      		pop r16
 3299 010e FF90      		pop r15
 3300 0110 EF90      		pop r14
 3301 0112 DF90      		pop r13
 3302 0114 CF90      		pop r12
 3303 0116 0895      		ret
 3304               	.LFE19:
 3306               		.section	.text.reset_game,"ax",@progbits
 3307               	.global	reset_game
 3309               	reset_game:
 3310               	.LFB22:
 3311               	.LSM213:
 3312 0000 BF92      		push r11
 3313 0002 CF92      		push r12
 3314 0004 DF92      		push r13
 3315 0006 EF92      		push r14
 3316 0008 FF92      		push r15
 3317 000a 0F93      		push r16
 3318 000c 1F93      		push r17
 3319 000e CF93      		push r28
 3320 0010 DF93      		push r29
 3321               	/* prologue: function */
 3322               	/* frame size = 0 */
 3323               	.LSM214:
 3324 0012 80E0      		ldi r24,lo8(0x423c0000)
 3325 0014 90E0      		ldi r25,hi8(0x423c0000)
 3326 0016 ACE3      		ldi r26,hlo8(0x423c0000)
 3327 0018 B2E4      		ldi r27,hhi8(0x423c0000)
 3328 001a 8093 0000 		sts sprite,r24
 3329 001e 9093 0000 		sts (sprite)+1,r25
 3330 0022 A093 0000 		sts (sprite)+2,r26
 3331 0026 B093 0000 		sts (sprite)+3,r27
 3332               	.LSM215:
 3333 002a 80E0      		ldi r24,lo8(0x41c00000)
 3334 002c 90E0      		ldi r25,hi8(0x41c00000)
 3335 002e A0EC      		ldi r26,hlo8(0x41c00000)
 3336 0030 B1E4      		ldi r27,hhi8(0x41c00000)
 3337 0032 8093 0000 		sts sprite+4,r24
 3338 0036 9093 0000 		sts (sprite+4)+1,r25
 3339 003a A093 0000 		sts (sprite+4)+2,r26
 3340 003e B093 0000 		sts (sprite+4)+3,r27
 3341 0042 20E0      		ldi r18,lo8(zombies)
 3342 0044 E22E      		mov r14,r18
 3343 0046 20E0      		ldi r18,hi8(zombies)
 3344 0048 F22E      		mov r15,r18
 3345 004a CC24      		clr r12
 3346 004c DD24      		clr r13
 3347               	.LVL26:
 3348               	.LBB9:
 3349               	.LBB10:
 3350               	.LSM216:
 3351 004e BB24      		clr r11
 3352 0050 B394      		inc r11
 3353               	.L346:
 3354               	.LSM217:
 3355 0052 2091 0000 		lds r18,clockCounter
 3356 0056 3091 0000 		lds r19,(clockCounter)+1
 3357 005a 8091 0000 		lds r24,globalCounter
 3358 005e 9091 0000 		lds r25,(globalCounter)+1
 3359 0062 AC01      		movw r20,r24
 3360 0064 C49E      		mul r12,r20
 3361 0066 C001      		movw r24,r0
 3362 0068 C59E      		mul r12,r21
 3363 006a 900D      		add r25,r0
 3364 006c D49E      		mul r13,r20
 3365 006e 900D      		add r25,r0
 3366 0070 1124      		clr r1
 3367 0072 820F      		add r24,r18
 3368 0074 931F      		adc r25,r19
 3369 0076 0E94 0000 		call srand
 3370 007a 0DE2      		ldi r16,lo8(45)
 3371 007c 10E0      		ldi r17,hi8(45)
 3372               	.LVL27:
 3373 007e 00C0      		rjmp .L342
 3374               	.L343:
 3375               	.LSM218:
 3376 0080 0E94 0000 		call rand
 3377 0084 6CE3      		ldi r22,lo8(60)
 3378 0086 70E0      		ldi r23,hi8(60)
 3379 0088 0E94 0000 		call __divmodhi4
 3380 008c 8C01      		movw r16,r24
 3381 008e 0E5E      		subi r16,lo8(-(18))
 3382 0090 1F4F      		sbci r17,hi8(-(18))
 3383               	.L342:
 3384               	.LSM219:
 3385 0092 C801      		movw r24,r16
 3386 0094 8497      		sbiw r24,36
 3387 0096 4397      		sbiw r24,19
 3388 0098 00F0      		brlo .L343
 3389 009a C6E1      		ldi r28,lo8(22)
 3390 009c D0E0      		ldi r29,hi8(22)
 3391               	.LVL28:
 3392 009e 00C0      		rjmp .L344
 3393               	.L345:
 3394               	.LSM220:
 3395 00a0 0E94 0000 		call rand
 3396 00a4 6EE1      		ldi r22,lo8(30)
 3397 00a6 70E0      		ldi r23,hi8(30)
 3398 00a8 0E94 0000 		call __divmodhi4
 3399 00ac EC01      		movw r28,r24
 3400 00ae 2296      		adiw r28,2
 3401               	.L344:
 3402               	.LSM221:
 3403 00b0 CE01      		movw r24,r28
 3404 00b2 0D97      		sbiw r24,13
 3405 00b4 0A97      		sbiw r24,10
 3406 00b6 00F0      		brlo .L345
 3407               	.LSM222:
 3408 00b8 B801      		movw r22,r16
 3409 00ba 8827      		clr r24
 3410 00bc 77FD      		sbrc r23,7
 3411 00be 8095      		com r24
 3412 00c0 982F      		mov r25,r24
 3413               	.LVL29:
 3414 00c2 0E94 0000 		call __floatsisf
 3415               	.LVL30:
 3416 00c6 F701      		movw r30,r14
 3417 00c8 6083      		st Z,r22
 3418 00ca 7183      		std Z+1,r23
 3419 00cc 8283      		std Z+2,r24
 3420 00ce 9383      		std Z+3,r25
 3421               	.LSM223:
 3422 00d0 BE01      		movw r22,r28
 3423 00d2 8827      		clr r24
 3424 00d4 77FD      		sbrc r23,7
 3425 00d6 8095      		com r24
 3426 00d8 982F      		mov r25,r24
 3427               	.LVL31:
 3428 00da 0E94 0000 		call __floatsisf
 3429               	.LVL32:
 3430 00de F701      		movw r30,r14
 3431 00e0 6483      		std Z+4,r22
 3432 00e2 7583      		std Z+5,r23
 3433 00e4 8683      		std Z+6,r24
 3434 00e6 9783      		std Z+7,r25
 3435               	.LSM224:
 3436 00e8 B286      		std Z+10,r11
 3437               	.LBE10:
 3438               	.LSM225:
 3439 00ea 0894      		sec
 3440 00ec C11C      		adc r12,__zero_reg__
 3441 00ee D11C      		adc r13,__zero_reg__
 3442 00f0 45E1      		ldi r20,lo8(21)
 3443 00f2 50E0      		ldi r21,hi8(21)
 3444 00f4 E40E      		add r14,r20
 3445 00f6 F51E      		adc r15,r21
 3446 00f8 58E0      		ldi r21,lo8(8)
 3447 00fa C516      		cp r12,r21
 3448 00fc D104      		cpc r13,__zero_reg__
 3449 00fe 01F0      		breq .+2
 3450 0100 00C0      		rjmp .L346
 3451               	/* epilogue start */
 3452               	.LBE9:
 3453               	.LSM226:
 3454 0102 DF91      		pop r29
 3455 0104 CF91      		pop r28
 3456 0106 1F91      		pop r17
 3457 0108 0F91      		pop r16
 3458 010a FF90      		pop r15
 3459 010c EF90      		pop r14
 3460 010e DF90      		pop r13
 3461 0110 CF90      		pop r12
 3462               	.LVL33:
 3463 0112 BF90      		pop r11
 3464 0114 0895      		ret
 3465               	.LFE22:
 3467               		.section	.text.check_collison,"ax",@progbits
 3468               	.global	check_collison
 3470               	check_collison:
 3471               	.LFB23:
 3472               	.LSM227:
 3473 0000 2F92      		push r2
 3474 0002 3F92      		push r3
 3475 0004 4F92      		push r4
 3476 0006 5F92      		push r5
 3477 0008 6F92      		push r6
 3478 000a 7F92      		push r7
 3479 000c 8F92      		push r8
 3480 000e 9F92      		push r9
 3481 0010 AF92      		push r10
 3482 0012 BF92      		push r11
 3483 0014 CF92      		push r12
 3484 0016 DF92      		push r13
 3485 0018 EF92      		push r14
 3486 001a FF92      		push r15
 3487 001c 0F93      		push r16
 3488 001e 1F93      		push r17
 3489 0020 DF93      		push r29
 3490 0022 CF93      		push r28
 3491 0024 CDB7      		in r28,__SP_L__
 3492 0026 DEB7      		in r29,__SP_H__
 3493 0028 2C97      		sbiw r28,12
 3494 002a 0FB6      		in __tmp_reg__,__SREG__
 3495 002c F894      		cli
 3496 002e DEBF      		out __SP_H__,r29
 3497 0030 0FBE      		out __SREG__,__tmp_reg__
 3498 0032 CDBF      		out __SP_L__,r28
 3499               	/* prologue: function */
 3500               	/* frame size = 12 */
 3501               	.LSM228:
 3502 0034 60E0      		ldi r22,lo8(zombies)
 3503 0036 862E      		mov r8,r22
 3504 0038 60E0      		ldi r22,hi8(zombies)
 3505 003a 962E      		mov r9,r22
 3506 003c 3401      		movw r6,r8
 3507               	.LBB11:
 3508               	.LBB12:
 3509               	.LSM229:
 3510 003e 58E0      		ldi r21,lo8(8)
 3511 0040 A52E      		mov r10,r21
 3512 0042 B12C      		mov r11,__zero_reg__
 3513               	.LSM230:
 3514 0044 42E3      		ldi r20,lo8(50)
 3515 0046 C42E      		mov r12,r20
 3516 0048 D12C      		mov r13,__zero_reg__
 3517               	.L353:
 3518               	.LSM231:
 3519 004a D301      		movw r26,r6
 3520 004c 1496      		adiw r26,4
 3521 004e ED90      		ld r14,X+
 3522 0050 FD90      		ld r15,X+
 3523 0052 0D91      		ld r16,X+
 3524 0054 1C91      		ld r17,X
 3525 0056 1797      		sbiw r26,4+3
 3526               	.LSM232:
 3527 0058 6D91      		ld r22,X+
 3528 005a 7D91      		ld r23,X+
 3529 005c 8D91      		ld r24,X+
 3530 005e 9C91      		ld r25,X
 3531 0060 0E94 0000 		call __fixsfsi
 3532 0064 8827      		clr r24
 3533 0066 77FD      		sbrc r23,7
 3534 0068 8095      		com r24
 3535 006a 982F      		mov r25,r24
 3536 006c 0E94 0000 		call __floatsisf
 3537 0070 2091 0000 		lds r18,sprite
 3538 0074 3091 0000 		lds r19,(sprite)+1
 3539 0078 4091 0000 		lds r20,(sprite)+2
 3540 007c 5091 0000 		lds r21,(sprite)+3
 3541 0080 0E94 0000 		call __eqsf2
 3542 0084 8823      		tst r24
 3543 0086 01F4      		brne .L350
 3544 0088 C801      		movw r24,r16
 3545 008a B701      		movw r22,r14
 3546 008c 0E94 0000 		call __fixsfsi
 3547 0090 8827      		clr r24
 3548 0092 77FD      		sbrc r23,7
 3549 0094 8095      		com r24
 3550 0096 982F      		mov r25,r24
 3551 0098 0E94 0000 		call __floatsisf
 3552 009c 2091 0000 		lds r18,sprite+4
 3553 00a0 3091 0000 		lds r19,(sprite+4)+1
 3554 00a4 4091 0000 		lds r20,(sprite+4)+2
 3555 00a8 5091 0000 		lds r21,(sprite+4)+3
 3556 00ac 0E94 0000 		call __eqsf2
 3557 00b0 8823      		tst r24
 3558 00b2 01F4      		brne .L350
 3559               	.LSM233:
 3560 00b4 0E94 0000 		call reset_game
 3561               	.LSM234:
 3562 00b8 8091 0000 		lds r24,cooldown
 3563 00bc 9091 0000 		lds r25,(cooldown)+1
 3564 00c0 97FF      		sbrs r25,7
 3565 00c2 00C0      		rjmp .L350
 3566               	.LSM235:
 3567 00c4 8091 0000 		lds r24,lives
 3568 00c8 9091 0000 		lds r25,(lives)+1
 3569 00cc 0197      		sbiw r24,1
 3570 00ce 9093 0000 		sts (lives)+1,r25
 3571 00d2 8093 0000 		sts lives,r24
 3572               	.LSM236:
 3573 00d6 1092 0000 		sts (held)+1,__zero_reg__
 3574 00da 1092 0000 		sts held,__zero_reg__
 3575               	.LSM237:
 3576 00de 1092 0000 		sts (upgrade)+1,__zero_reg__
 3577 00e2 1092 0000 		sts upgrade,__zero_reg__
 3578               	.LSM238:
 3579 00e6 B092 0000 		sts (gameOverCount)+1,r11
 3580 00ea A092 0000 		sts gameOverCount,r10
 3581               	.LSM239:
 3582 00ee D092 0000 		sts (cooldown)+1,r13
 3583 00f2 C092 0000 		sts cooldown,r12
 3584               	.L350:
 3585 00f6 E5E1      		ldi r30,lo8(21)
 3586 00f8 F0E0      		ldi r31,hi8(21)
 3587 00fa 6E0E      		add r6,r30
 3588 00fc 7F1E      		adc r7,r31
 3589               	.LBE12:
 3590               	.LSM240:
 3591 00fe F0E0      		ldi r31,lo8(zombies+168)
 3592 0100 6F16      		cp r6,r31
 3593 0102 F0E0      		ldi r31,hi8(zombies+168)
 3594 0104 7F06      		cpc r7,r31
 3595 0106 01F0      		breq .+2
 3596 0108 00C0      		rjmp .L353
 3597               	.LBE11:
 3598               	.LSM241:
 3599 010a 8091 0000 		lds r24,held
 3600 010e 9091 0000 		lds r25,(held)+1
 3601 0112 0197      		sbiw r24,1
 3602 0114 01F0      		breq .+2
 3603 0116 00C0      		rjmp .L354
 3604               	.LBB13:
 3605               	.LBB14:
 3606               	.LSM242:
 3607 0118 8091 0000 		lds r24,sword
 3608 011c 9091 0000 		lds r25,(sword)+1
 3609 0120 A091 0000 		lds r26,(sword)+2
 3610 0124 B091 0000 		lds r27,(sword)+3
 3611 0128 8987      		std Y+9,r24
 3612 012a 9A87      		std Y+10,r25
 3613 012c AB87      		std Y+11,r26
 3614 012e BC87      		std Y+12,r27
 3615 0130 BC01      		movw r22,r24
 3616 0132 CD01      		movw r24,r26
 3617 0134 20E0      		ldi r18,lo8(0x3f800000)
 3618 0136 30E0      		ldi r19,hi8(0x3f800000)
 3619 0138 40E8      		ldi r20,hlo8(0x3f800000)
 3620 013a 5FE3      		ldi r21,hhi8(0x3f800000)
 3621 013c 0E94 0000 		call __subsf3
 3622 0140 6D83      		std Y+5,r22
 3623 0142 7E83      		std Y+6,r23
 3624 0144 8F83      		std Y+7,r24
 3625 0146 9887      		std Y+8,r25
 3626 0148 4090 0000 		lds r4,sword+4
 3627 014c 5090 0000 		lds r5,(sword+4)+1
 3628 0150 6090 0000 		lds r6,(sword+4)+2
 3629 0154 7090 0000 		lds r7,(sword+4)+3
 3630 0158 30E0      		ldi r19,lo8(zombies)
 3631 015a 232E      		mov r2,r19
 3632 015c 30E0      		ldi r19,hi8(zombies)
 3633 015e 332E      		mov r3,r19
 3634               	.L360:
 3635               	.LSM243:
 3636 0160 D101      		movw r26,r2
 3637 0162 1496      		adiw r26,4
 3638 0164 AD90      		ld r10,X+
 3639 0166 BD90      		ld r11,X+
 3640 0168 CD90      		ld r12,X+
 3641 016a DC90      		ld r13,X
 3642 016c 1797      		sbiw r26,4+3
 3643               	.LSM244:
 3644 016e 6D91      		ld r22,X+
 3645 0170 7D91      		ld r23,X+
 3646 0172 8D91      		ld r24,X+
 3647 0174 9C91      		ld r25,X
 3648 0176 0E94 0000 		call __fixsfsi
 3649 017a 8827      		clr r24
 3650 017c 77FD      		sbrc r23,7
 3651 017e 8095      		com r24
 3652 0180 982F      		mov r25,r24
 3653 0182 0E94 0000 		call __floatsisf
 3654 0186 7B01      		movw r14,r22
 3655 0188 8C01      		movw r16,r24
 3656 018a 2D81      		ldd r18,Y+5
 3657 018c 3E81      		ldd r19,Y+6
 3658 018e 4F81      		ldd r20,Y+7
 3659 0190 5885      		ldd r21,Y+8
 3660 0192 0E94 0000 		call __gtsf2
 3661 0196 1816      		cp __zero_reg__,r24
 3662 0198 04F0      		brlt .+2
 3663 019a 00C0      		rjmp .L355
 3664 019c 6985      		ldd r22,Y+9
 3665 019e 7A85      		ldd r23,Y+10
 3666 01a0 8B85      		ldd r24,Y+11
 3667 01a2 9C85      		ldd r25,Y+12
 3668 01a4 20E0      		ldi r18,lo8(0x40000000)
 3669 01a6 30E0      		ldi r19,hi8(0x40000000)
 3670 01a8 40E0      		ldi r20,hlo8(0x40000000)
 3671 01aa 50E4      		ldi r21,hhi8(0x40000000)
 3672 01ac 0E94 0000 		call __addsf3
 3673 01b0 9B01      		movw r18,r22
 3674 01b2 AC01      		movw r20,r24
 3675 01b4 C801      		movw r24,r16
 3676 01b6 B701      		movw r22,r14
 3677 01b8 0E94 0000 		call __ltsf2
 3678 01bc 8823      		tst r24
 3679 01be 04F0      		brlt .+2
 3680 01c0 00C0      		rjmp .L355
 3681 01c2 C601      		movw r24,r12
 3682 01c4 B501      		movw r22,r10
 3683 01c6 0E94 0000 		call __fixsfsi
 3684 01ca 8827      		clr r24
 3685 01cc 77FD      		sbrc r23,7
 3686 01ce 8095      		com r24
 3687 01d0 982F      		mov r25,r24
 3688 01d2 0E94 0000 		call __floatsisf
 3689 01d6 7B01      		movw r14,r22
 3690 01d8 8C01      		movw r16,r24
 3691 01da C301      		movw r24,r6
 3692 01dc B201      		movw r22,r4
 3693 01de 20E0      		ldi r18,lo8(0x3f800000)
 3694 01e0 30E0      		ldi r19,hi8(0x3f800000)
 3695 01e2 40E8      		ldi r20,hlo8(0x3f800000)
 3696 01e4 5FE3      		ldi r21,hhi8(0x3f800000)
 3697 01e6 0E94 0000 		call __subsf3
 3698 01ea 9B01      		movw r18,r22
 3699 01ec AC01      		movw r20,r24
 3700 01ee C801      		movw r24,r16
 3701 01f0 B701      		movw r22,r14
 3702 01f2 0E94 0000 		call __gtsf2
 3703 01f6 1816      		cp __zero_reg__,r24
 3704 01f8 04F4      		brge .L355
 3705 01fa C301      		movw r24,r6
 3706 01fc B201      		movw r22,r4
 3707 01fe 20E0      		ldi r18,lo8(0x40000000)
 3708 0200 30E0      		ldi r19,hi8(0x40000000)
 3709 0202 40E0      		ldi r20,hlo8(0x40000000)
 3710 0204 50E4      		ldi r21,hhi8(0x40000000)
 3711 0206 0E94 0000 		call __addsf3
 3712 020a 9B01      		movw r18,r22
 3713 020c AC01      		movw r20,r24
 3714 020e C801      		movw r24,r16
 3715 0210 B701      		movw r22,r14
 3716 0212 0E94 0000 		call __ltsf2
 3717 0216 8823      		tst r24
 3718 0218 04F4      		brge .L355
 3719               	.LSM245:
 3720 021a 80E0      		ldi r24,lo8(0xc1200000)
 3721 021c 90E0      		ldi r25,hi8(0xc1200000)
 3722 021e A0E2      		ldi r26,hlo8(0xc1200000)
 3723 0220 B1EC      		ldi r27,hhi8(0xc1200000)
 3724 0222 F101      		movw r30,r2
 3725 0224 8083      		st Z,r24
 3726 0226 9183      		std Z+1,r25
 3727 0228 A283      		std Z+2,r26
 3728 022a B383      		std Z+3,r27
 3729               	.LSM246:
 3730 022c 8483      		std Z+4,r24
 3731 022e 9583      		std Z+5,r25
 3732 0230 A683      		std Z+6,r26
 3733 0232 B783      		std Z+7,r27
 3734               	.LSM247:
 3735 0234 8091 0000 		lds r24,scoreCounter
 3736 0238 9091 0000 		lds r25,(scoreCounter)+1
 3737 023c 0296      		adiw r24,2
 3738 023e 9093 0000 		sts (scoreCounter)+1,r25
 3739 0242 8093 0000 		sts scoreCounter,r24
 3740               	.LSM248:
 3741 0246 8091 0000 		lds r24,gameOverCount
 3742 024a 9091 0000 		lds r25,(gameOverCount)+1
 3743 024e 0197      		sbiw r24,1
 3744 0250 9093 0000 		sts (gameOverCount)+1,r25
 3745 0254 8093 0000 		sts gameOverCount,r24
 3746               	.L355:
 3747 0258 85E1      		ldi r24,lo8(21)
 3748 025a 90E0      		ldi r25,hi8(21)
 3749 025c 280E      		add r2,r24
 3750 025e 391E      		adc r3,r25
 3751               	.LBE14:
 3752               	.LSM249:
 3753 0260 90E0      		ldi r25,lo8(zombies+168)
 3754 0262 2916      		cp r2,r25
 3755 0264 90E0      		ldi r25,hi8(zombies+168)
 3756 0266 3906      		cpc r3,r25
 3757 0268 01F0      		breq .+2
 3758 026a 00C0      		rjmp .L360
 3759               	.L354:
 3760               	.LBE13:
 3761               	.LSM250:
 3762 026c 8091 0000 		lds r24,explosionTime
 3763 0270 9091 0000 		lds r25,(explosionTime)+1
 3764 0274 1816      		cp __zero_reg__,r24
 3765 0276 1906      		cpc __zero_reg__,r25
 3766 0278 04F0      		brlt .+2
 3767 027a 00C0      		rjmp .L368
 3768               	.LBB15:
 3769               	.LBB16:
 3770               	.LSM251:
 3771 027c 8091 0000 		lds r24,bomb
 3772 0280 9091 0000 		lds r25,(bomb)+1
 3773 0284 A091 0000 		lds r26,(bomb)+2
 3774 0288 B091 0000 		lds r27,(bomb)+3
 3775 028c 8983      		std Y+1,r24
 3776 028e 9A83      		std Y+2,r25
 3777 0290 AB83      		std Y+3,r26
 3778 0292 BC83      		std Y+4,r27
 3779 0294 4090 0000 		lds r4,bomb+4
 3780 0298 5090 0000 		lds r5,(bomb+4)+1
 3781 029c 6090 0000 		lds r6,(bomb+4)+2
 3782 02a0 7090 0000 		lds r7,(bomb+4)+3
 3783               	.L367:
 3784               	.LSM252:
 3785 02a4 D401      		movw r26,r8
 3786 02a6 1496      		adiw r26,4
 3787 02a8 AD90      		ld r10,X+
 3788 02aa BD90      		ld r11,X+
 3789 02ac CD90      		ld r12,X+
 3790 02ae DC90      		ld r13,X
 3791 02b0 1797      		sbiw r26,4+3
 3792               	.LSM253:
 3793 02b2 6D91      		ld r22,X+
 3794 02b4 7D91      		ld r23,X+
 3795 02b6 8D91      		ld r24,X+
 3796 02b8 9C91      		ld r25,X
 3797 02ba 0E94 0000 		call __fixsfsi
 3798 02be 8827      		clr r24
 3799 02c0 77FD      		sbrc r23,7
 3800 02c2 8095      		com r24
 3801 02c4 982F      		mov r25,r24
 3802 02c6 0E94 0000 		call __floatsisf
 3803 02ca 7B01      		movw r14,r22
 3804 02cc 8C01      		movw r16,r24
 3805 02ce 2981      		ldd r18,Y+1
 3806 02d0 3A81      		ldd r19,Y+2
 3807 02d2 4B81      		ldd r20,Y+3
 3808 02d4 5C81      		ldd r21,Y+4
 3809 02d6 0E94 0000 		call __gtsf2
 3810 02da 1816      		cp __zero_reg__,r24
 3811 02dc 04F0      		brlt .+2
 3812 02de 00C0      		rjmp .L362
 3813 02e0 6981      		ldd r22,Y+1
 3814 02e2 7A81      		ldd r23,Y+2
 3815 02e4 8B81      		ldd r24,Y+3
 3816 02e6 9C81      		ldd r25,Y+4
 3817 02e8 20E0      		ldi r18,lo8(0x41200000)
 3818 02ea 30E0      		ldi r19,hi8(0x41200000)
 3819 02ec 40E2      		ldi r20,hlo8(0x41200000)
 3820 02ee 51E4      		ldi r21,hhi8(0x41200000)
 3821 02f0 0E94 0000 		call __addsf3
 3822 02f4 9B01      		movw r18,r22
 3823 02f6 AC01      		movw r20,r24
 3824 02f8 C801      		movw r24,r16
 3825 02fa B701      		movw r22,r14
 3826 02fc 0E94 0000 		call __ltsf2
 3827 0300 8823      		tst r24
 3828 0302 04F0      		brlt .+2
 3829 0304 00C0      		rjmp .L362
 3830 0306 C601      		movw r24,r12
 3831 0308 B501      		movw r22,r10
 3832 030a 0E94 0000 		call __fixsfsi
 3833 030e 8827      		clr r24
 3834 0310 77FD      		sbrc r23,7
 3835 0312 8095      		com r24
 3836 0314 982F      		mov r25,r24
 3837 0316 0E94 0000 		call __floatsisf
 3838 031a 7B01      		movw r14,r22
 3839 031c 8C01      		movw r16,r24
 3840 031e A301      		movw r20,r6
 3841 0320 9201      		movw r18,r4
 3842 0322 0E94 0000 		call __gtsf2
 3843 0326 1816      		cp __zero_reg__,r24
 3844 0328 04F4      		brge .L362
 3845 032a C301      		movw r24,r6
 3846 032c B201      		movw r22,r4
 3847 032e 20E0      		ldi r18,lo8(0x41200000)
 3848 0330 30E0      		ldi r19,hi8(0x41200000)
 3849 0332 40E2      		ldi r20,hlo8(0x41200000)
 3850 0334 51E4      		ldi r21,hhi8(0x41200000)
 3851 0336 0E94 0000 		call __addsf3
 3852 033a 9B01      		movw r18,r22
 3853 033c AC01      		movw r20,r24
 3854 033e C801      		movw r24,r16
 3855 0340 B701      		movw r22,r14
 3856 0342 0E94 0000 		call __ltsf2
 3857 0346 8823      		tst r24
 3858 0348 04F4      		brge .L362
 3859               	.LSM254:
 3860 034a 80E0      		ldi r24,lo8(0xc1200000)
 3861 034c 90E0      		ldi r25,hi8(0xc1200000)
 3862 034e A0E2      		ldi r26,hlo8(0xc1200000)
 3863 0350 B1EC      		ldi r27,hhi8(0xc1200000)
 3864 0352 F401      		movw r30,r8
 3865 0354 8083      		st Z,r24
 3866 0356 9183      		std Z+1,r25
 3867 0358 A283      		std Z+2,r26
 3868 035a B383      		std Z+3,r27
 3869               	.LSM255:
 3870 035c 8483      		std Z+4,r24
 3871 035e 9583      		std Z+5,r25
 3872 0360 A683      		std Z+6,r26
 3873 0362 B783      		std Z+7,r27
 3874               	.LSM256:
 3875 0364 8091 0000 		lds r24,scoreCounter
 3876 0368 9091 0000 		lds r25,(scoreCounter)+1
 3877 036c 0296      		adiw r24,2
 3878 036e 9093 0000 		sts (scoreCounter)+1,r25
 3879 0372 8093 0000 		sts scoreCounter,r24
 3880               	.LSM257:
 3881 0376 8091 0000 		lds r24,gameOverCount
 3882 037a 9091 0000 		lds r25,(gameOverCount)+1
 3883 037e 0197      		sbiw r24,1
 3884 0380 9093 0000 		sts (gameOverCount)+1,r25
 3885 0384 8093 0000 		sts gameOverCount,r24
 3886               	.L362:
 3887 0388 85E1      		ldi r24,lo8(21)
 3888 038a 90E0      		ldi r25,hi8(21)
 3889 038c 880E      		add r8,r24
 3890 038e 991E      		adc r9,r25
 3891               	.LBE16:
 3892               	.LSM258:
 3893 0390 90E0      		ldi r25,lo8(zombies+168)
 3894 0392 8916      		cp r8,r25
 3895 0394 90E0      		ldi r25,hi8(zombies+168)
 3896 0396 9906      		cpc r9,r25
 3897 0398 01F0      		breq .+2
 3898 039a 00C0      		rjmp .L367
 3899               	.L368:
 3900               	/* epilogue start */
 3901               	.LBE15:
 3902               	.LSM259:
 3903 039c 2C96      		adiw r28,12
 3904 039e 0FB6      		in __tmp_reg__,__SREG__
 3905 03a0 F894      		cli
 3906 03a2 DEBF      		out __SP_H__,r29
 3907 03a4 0FBE      		out __SREG__,__tmp_reg__
 3908 03a6 CDBF      		out __SP_L__,r28
 3909 03a8 CF91      		pop r28
 3910 03aa DF91      		pop r29
 3911 03ac 1F91      		pop r17
 3912 03ae 0F91      		pop r16
 3913 03b0 FF90      		pop r15
 3914 03b2 EF90      		pop r14
 3915 03b4 DF90      		pop r13
 3916 03b6 CF90      		pop r12
 3917 03b8 BF90      		pop r11
 3918 03ba AF90      		pop r10
 3919 03bc 9F90      		pop r9
 3920 03be 8F90      		pop r8
 3921 03c0 7F90      		pop r7
 3922 03c2 6F90      		pop r6
 3923 03c4 5F90      		pop r5
 3924 03c6 4F90      		pop r4
 3925 03c8 3F90      		pop r3
 3926 03ca 2F90      		pop r2
 3927 03cc 0895      		ret
 3928               	.LFE23:
 3930               		.section	.text.sprite_angle_change,"ax",@progbits
 3931               	.global	sprite_angle_change
 3933               	sprite_angle_change:
 3934               	.LFB20:
 3935               	.LSM260:
 3936               	.LVL34:
 3937 0000 EF92      		push r14
 3938 0002 FF92      		push r15
 3939 0004 0F93      		push r16
 3940 0006 1F93      		push r17
 3941 0008 CF93      		push r28
 3942 000a DF93      		push r29
 3943               	/* prologue: function */
 3944               	/* frame size = 0 */
 3945 000c EC01      		movw r28,r24
 3946               	.LSM261:
 3947 000e 2091 0000 		lds r18,globalCounter
 3948 0012 3091 0000 		lds r19,(globalCounter)+1
 3949 0016 8091 0000 		lds r24,seedcount
 3950 001a 9091 0000 		lds r25,(seedcount)+1
 3951               	.LVL35:
 3952 001e AC01      		movw r20,r24
 3953 0020 429F      		mul r20,r18
 3954 0022 C001      		movw r24,r0
 3955 0024 439F      		mul r20,r19
 3956 0026 900D      		add r25,r0
 3957 0028 529F      		mul r21,r18
 3958 002a 900D      		add r25,r0
 3959 002c 1124      		clr r1
 3960 002e 0E94 0000 		call srand
 3961               	.LSM262:
 3962 0032 0E94 0000 		call rand
 3963 0036 64E6      		ldi r22,lo8(100)
 3964 0038 70E0      		ldi r23,hi8(100)
 3965 003a 0E94 0000 		call __divmodhi4
 3966               	.LSM263:
 3967 003e 8F35      		cpi r24,95
 3968 0040 9105      		cpc r25,__zero_reg__
 3969               	.LVL36:
 3970 0042 04F0      		brlt .L383
 3971               	.LSM264:
 3972 0044 ED84      		ldd r14,Y+13
 3973 0046 FE84      		ldd r15,Y+14
 3974 0048 0F85      		ldd r16,Y+15
 3975 004a 1889      		ldd r17,Y+16
 3976 004c C801      		movw r24,r16
 3977 004e B701      		movw r22,r14
 3978 0050 20E0      		ldi r18,lo8(0x0)
 3979 0052 30E0      		ldi r19,hi8(0x0)
 3980 0054 40E0      		ldi r20,hlo8(0x0)
 3981 0056 50E0      		ldi r21,hhi8(0x0)
 3982 0058 0E94 0000 		call __gtsf2
 3983               	.LVL37:
 3984 005c 1816      		cp __zero_reg__,r24
 3985 005e 04F4      		brge .L384
 3986               	.LSM265:
 3987 0060 C801      		movw r24,r16
 3988 0062 B701      		movw r22,r14
 3989 0064 20E0      		ldi r18,lo8(0x3f800000)
 3990 0066 30E0      		ldi r19,hi8(0x3f800000)
 3991 0068 40E8      		ldi r20,hlo8(0x3f800000)
 3992 006a 5FE3      		ldi r21,hhi8(0x3f800000)
 3993 006c 0E94 0000 		call __subsf3
 3994 0070 6D87      		std Y+13,r22
 3995 0072 7E87      		std Y+14,r23
 3996 0074 8F87      		std Y+15,r24
 3997 0076 988B      		std Y+16,r25
 3998               	.L384:
 3999               	.LSM266:
 4000 0078 ED84      		ldd r14,Y+13
 4001 007a FE84      		ldd r15,Y+14
 4002 007c 0F85      		ldd r16,Y+15
 4003 007e 1889      		ldd r17,Y+16
 4004 0080 C801      		movw r24,r16
 4005 0082 B701      		movw r22,r14
 4006 0084 20E0      		ldi r18,lo8(0x0)
 4007 0086 30E0      		ldi r19,hi8(0x0)
 4008 0088 40E0      		ldi r20,hlo8(0x0)
 4009 008a 50E0      		ldi r21,hhi8(0x0)
 4010 008c 0E94 0000 		call __ltsf2
 4011 0090 8823      		tst r24
 4012 0092 04F0      		brlt .+2
 4013 0094 00C0      		rjmp .L391
 4014               	.LSM267:
 4015 0096 C801      		movw r24,r16
 4016 0098 B701      		movw r22,r14
 4017 009a 20E0      		ldi r18,lo8(0x3f800000)
 4018 009c 30E0      		ldi r19,hi8(0x3f800000)
 4019 009e 40E8      		ldi r20,hlo8(0x3f800000)
 4020 00a0 5FE3      		ldi r21,hhi8(0x3f800000)
 4021 00a2 0E94 0000 		call __addsf3
 4022 00a6 6D87      		std Y+13,r22
 4023 00a8 7E87      		std Y+14,r23
 4024 00aa 8F87      		std Y+15,r24
 4025 00ac 988B      		std Y+16,r25
 4026 00ae 00C0      		rjmp .L391
 4027               	.LVL38:
 4028               	.L383:
 4029               	.LSM268:
 4030 00b0 8630      		cpi r24,6
 4031 00b2 9105      		cpc r25,__zero_reg__
 4032 00b4 04F4      		brge .L391
 4033               	.LSM269:
 4034 00b6 E988      		ldd r14,Y+17
 4035 00b8 FA88      		ldd r15,Y+18
 4036 00ba 0B89      		ldd r16,Y+19
 4037 00bc 1C89      		ldd r17,Y+20
 4038 00be C801      		movw r24,r16
 4039 00c0 B701      		movw r22,r14
 4040 00c2 20E0      		ldi r18,lo8(0x0)
 4041 00c4 30E0      		ldi r19,hi8(0x0)
 4042 00c6 40E0      		ldi r20,hlo8(0x0)
 4043 00c8 50E0      		ldi r21,hhi8(0x0)
 4044 00ca 0E94 0000 		call __gtsf2
 4045               	.LVL39:
 4046 00ce 1816      		cp __zero_reg__,r24
 4047 00d0 04F4      		brge .L388
 4048               	.LSM270:
 4049 00d2 C801      		movw r24,r16
 4050 00d4 B701      		movw r22,r14
 4051 00d6 20E0      		ldi r18,lo8(0x3f800000)
 4052 00d8 30E0      		ldi r19,hi8(0x3f800000)
 4053 00da 40E8      		ldi r20,hlo8(0x3f800000)
 4054 00dc 5FE3      		ldi r21,hhi8(0x3f800000)
 4055 00de 0E94 0000 		call __subsf3
 4056 00e2 698B      		std Y+17,r22
 4057 00e4 7A8B      		std Y+18,r23
 4058 00e6 8B8B      		std Y+19,r24
 4059 00e8 9C8B      		std Y+20,r25
 4060               	.L388:
 4061               	.LSM271:
 4062 00ea E988      		ldd r14,Y+17
 4063 00ec FA88      		ldd r15,Y+18
 4064 00ee 0B89      		ldd r16,Y+19
 4065 00f0 1C89      		ldd r17,Y+20
 4066 00f2 C801      		movw r24,r16
 4067 00f4 B701      		movw r22,r14
 4068 00f6 20E0      		ldi r18,lo8(0x0)
 4069 00f8 30E0      		ldi r19,hi8(0x0)
 4070 00fa 40E0      		ldi r20,hlo8(0x0)
 4071 00fc 50E0      		ldi r21,hhi8(0x0)
 4072 00fe 0E94 0000 		call __ltsf2
 4073 0102 8823      		tst r24
 4074 0104 04F4      		brge .L391
 4075               	.LSM272:
 4076 0106 C801      		movw r24,r16
 4077 0108 B701      		movw r22,r14
 4078 010a 20E0      		ldi r18,lo8(0x3f800000)
 4079 010c 30E0      		ldi r19,hi8(0x3f800000)
 4080 010e 40E8      		ldi r20,hlo8(0x3f800000)
 4081 0110 5FE3      		ldi r21,hhi8(0x3f800000)
 4082 0112 0E94 0000 		call __addsf3
 4083 0116 698B      		std Y+17,r22
 4084 0118 7A8B      		std Y+18,r23
 4085 011a 8B8B      		std Y+19,r24
 4086 011c 9C8B      		std Y+20,r25
 4087               	.LVL40:
 4088               	.L391:
 4089               	/* epilogue start */
 4090               	.LSM273:
 4091 011e DF91      		pop r29
 4092 0120 CF91      		pop r28
 4093               	.LVL41:
 4094 0122 1F91      		pop r17
 4095 0124 0F91      		pop r16
 4096 0126 FF90      		pop r15
 4097 0128 EF90      		pop r14
 4098 012a 0895      		ret
 4099               	.LFE20:
 4101               		.section	.text.update_weapon,"ax",@progbits
 4102               	.global	update_weapon
 4104               	update_weapon:
 4105               	.LFB16:
 4106               	.LSM274:
 4107 0000 AF92      		push r10
 4108 0002 BF92      		push r11
 4109 0004 CF92      		push r12
 4110 0006 DF92      		push r13
 4111 0008 EF92      		push r14
 4112 000a FF92      		push r15
 4113 000c 0F93      		push r16
 4114 000e 1F93      		push r17
 4115 0010 CF93      		push r28
 4116 0012 DF93      		push r29
 4117               	/* prologue: function */
 4118               	/* frame size = 0 */
 4119               	.LSM275:
 4120 0014 8091 0000 		lds r24,upgrade
 4121 0018 9091 0000 		lds r25,(upgrade)+1
 4122 001c 892B      		or r24,r25
 4123 001e 01F0      		breq .+2
 4124 0020 00C0      		rjmp .L397
 4125               	.LSM276:
 4126 0022 8091 0000 		lds r24,tagged
 4127 0026 9091 0000 		lds r25,(tagged)+1
 4128 002a 892B      		or r24,r25
 4129 002c 01F0      		breq .+2
 4130 002e 00C0      		rjmp .L398
 4131               	.LBB17:
 4132               	.LSM277:
 4133 0030 2091 0000 		lds r18,seedcount
 4134 0034 3091 0000 		lds r19,(seedcount)+1
 4135 0038 8091 0000 		lds r24,globalCounter
 4136 003c 9091 0000 		lds r25,(globalCounter)+1
 4137 0040 AC01      		movw r20,r24
 4138 0042 429F      		mul r20,r18
 4139 0044 C001      		movw r24,r0
 4140 0046 439F      		mul r20,r19
 4141 0048 900D      		add r25,r0
 4142 004a 529F      		mul r21,r18
 4143 004c 900D      		add r25,r0
 4144 004e 1124      		clr r1
 4145 0050 0E94 0000 		call srand
 4146 0054 CDE2      		ldi r28,lo8(45)
 4147 0056 D0E0      		ldi r29,hi8(45)
 4148               	.LVL42:
 4149 0058 00C0      		rjmp .L399
 4150               	.L400:
 4151               	.LSM278:
 4152 005a 0E94 0000 		call rand
 4153 005e 6CE3      		ldi r22,lo8(60)
 4154 0060 70E0      		ldi r23,hi8(60)
 4155 0062 0E94 0000 		call __divmodhi4
 4156 0066 EC01      		movw r28,r24
 4157 0068 6296      		adiw r28,18
 4158               	.LSM279:
 4159 006a 8091 0000 		lds r24,seedcount
 4160 006e 9091 0000 		lds r25,(seedcount)+1
 4161 0072 0196      		adiw r24,1
 4162 0074 9093 0000 		sts (seedcount)+1,r25
 4163 0078 8093 0000 		sts seedcount,r24
 4164               	.L399:
 4165               	.LSM280:
 4166 007c CE01      		movw r24,r28
 4167 007e 8497      		sbiw r24,36
 4168 0080 4397      		sbiw r24,19
 4169 0082 00F0      		brlo .L400
 4170 0084 06E1      		ldi r16,lo8(22)
 4171 0086 10E0      		ldi r17,hi8(22)
 4172               	.LVL43:
 4173 0088 00C0      		rjmp .L401
 4174               	.L402:
 4175               	.LSM281:
 4176 008a 0E94 0000 		call rand
 4177 008e 6EE1      		ldi r22,lo8(30)
 4178 0090 70E0      		ldi r23,hi8(30)
 4179 0092 0E94 0000 		call __divmodhi4
 4180 0096 8C01      		movw r16,r24
 4181 0098 0E5F      		subi r16,lo8(-(2))
 4182 009a 1F4F      		sbci r17,hi8(-(2))
 4183               	.LSM282:
 4184 009c 8091 0000 		lds r24,seedcount
 4185 00a0 9091 0000 		lds r25,(seedcount)+1
 4186 00a4 0196      		adiw r24,1
 4187 00a6 9093 0000 		sts (seedcount)+1,r25
 4188 00aa 8093 0000 		sts seedcount,r24
 4189               	.L401:
 4190               	.LSM283:
 4191 00ae C801      		movw r24,r16
 4192 00b0 0D97      		sbiw r24,13
 4193 00b2 0A97      		sbiw r24,10
 4194 00b4 00F0      		brlo .L402
 4195               	.LSM284:
 4196 00b6 80E0      		ldi r24,lo8(0x0)
 4197 00b8 90E0      		ldi r25,hi8(0x0)
 4198 00ba A0E0      		ldi r26,hlo8(0x0)
 4199 00bc B0E0      		ldi r27,hhi8(0x0)
 4200 00be 8093 0000 		sts sword+13,r24
 4201 00c2 9093 0000 		sts (sword+13)+1,r25
 4202 00c6 A093 0000 		sts (sword+13)+2,r26
 4203 00ca B093 0000 		sts (sword+13)+3,r27
 4204               	.LSM285:
 4205 00ce 8093 0000 		sts sword+17,r24
 4206 00d2 9093 0000 		sts (sword+17)+1,r25
 4207 00d6 A093 0000 		sts (sword+17)+2,r26
 4208 00da B093 0000 		sts (sword+17)+3,r27
 4209               	.LSM286:
 4210 00de BE01      		movw r22,r28
 4211 00e0 8827      		clr r24
 4212 00e2 77FD      		sbrc r23,7
 4213 00e4 8095      		com r24
 4214 00e6 982F      		mov r25,r24
 4215               	.LVL44:
 4216 00e8 0E94 0000 		call __floatsisf
 4217               	.LVL45:
 4218 00ec 6093 0000 		sts sword,r22
 4219 00f0 7093 0000 		sts (sword)+1,r23
 4220 00f4 8093 0000 		sts (sword)+2,r24
 4221 00f8 9093 0000 		sts (sword)+3,r25
 4222               	.LSM287:
 4223 00fc B801      		movw r22,r16
 4224 00fe 8827      		clr r24
 4225 0100 77FD      		sbrc r23,7
 4226 0102 8095      		com r24
 4227 0104 982F      		mov r25,r24
 4228               	.LVL46:
 4229 0106 0E94 0000 		call __floatsisf
 4230               	.LVL47:
 4231 010a 6093 0000 		sts sword+4,r22
 4232 010e 7093 0000 		sts (sword+4)+1,r23
 4233 0112 8093 0000 		sts (sword+4)+2,r24
 4234 0116 9093 0000 		sts (sword+4)+3,r25
 4235               	.LSM288:
 4236 011a 81E0      		ldi r24,lo8(1)
 4237 011c 90E0      		ldi r25,hi8(1)
 4238 011e 9093 0000 		sts (tagged)+1,r25
 4239 0122 8093 0000 		sts tagged,r24
 4240               	.L398:
 4241               	.LBE17:
 4242               	.LSM289:
 4243 0126 A090 0000 		lds r10,sprite
 4244 012a B090 0000 		lds r11,(sprite)+1
 4245 012e C090 0000 		lds r12,(sprite)+2
 4246 0132 D090 0000 		lds r13,(sprite)+3
 4247 0136 E090 0000 		lds r14,sword
 4248 013a F090 0000 		lds r15,(sword)+1
 4249 013e 0091 0000 		lds r16,(sword)+2
 4250 0142 1091 0000 		lds r17,(sword)+3
 4251 0146 C801      		movw r24,r16
 4252 0148 B701      		movw r22,r14
 4253 014a 20E0      		ldi r18,lo8(0x3f800000)
 4254 014c 30E0      		ldi r19,hi8(0x3f800000)
 4255 014e 40E8      		ldi r20,hlo8(0x3f800000)
 4256 0150 5FE3      		ldi r21,hhi8(0x3f800000)
 4257 0152 0E94 0000 		call __subsf3
 4258 0156 9B01      		movw r18,r22
 4259 0158 AC01      		movw r20,r24
 4260 015a C601      		movw r24,r12
 4261 015c B501      		movw r22,r10
 4262 015e 0E94 0000 		call __gtsf2
 4263 0162 1816      		cp __zero_reg__,r24
 4264 0164 04F0      		brlt .+2
 4265 0166 00C0      		rjmp .L397
 4266 0168 C801      		movw r24,r16
 4267 016a B701      		movw r22,r14
 4268 016c 20E0      		ldi r18,lo8(0x40000000)
 4269 016e 30E0      		ldi r19,hi8(0x40000000)
 4270 0170 40E0      		ldi r20,hlo8(0x40000000)
 4271 0172 50E4      		ldi r21,hhi8(0x40000000)
 4272 0174 0E94 0000 		call __addsf3
 4273 0178 9B01      		movw r18,r22
 4274 017a AC01      		movw r20,r24
 4275 017c C601      		movw r24,r12
 4276 017e B501      		movw r22,r10
 4277 0180 0E94 0000 		call __ltsf2
 4278 0184 8823      		tst r24
 4279 0186 04F0      		brlt .+2
 4280 0188 00C0      		rjmp .L397
 4281 018a A090 0000 		lds r10,sprite+4
 4282 018e B090 0000 		lds r11,(sprite+4)+1
 4283 0192 C090 0000 		lds r12,(sprite+4)+2
 4284 0196 D090 0000 		lds r13,(sprite+4)+3
 4285 019a E090 0000 		lds r14,sword+4
 4286 019e F090 0000 		lds r15,(sword+4)+1
 4287 01a2 0091 0000 		lds r16,(sword+4)+2
 4288 01a6 1091 0000 		lds r17,(sword+4)+3
 4289 01aa C801      		movw r24,r16
 4290 01ac B701      		movw r22,r14
 4291 01ae 20E0      		ldi r18,lo8(0x3f800000)
 4292 01b0 30E0      		ldi r19,hi8(0x3f800000)
 4293 01b2 40E8      		ldi r20,hlo8(0x3f800000)
 4294 01b4 5FE3      		ldi r21,hhi8(0x3f800000)
 4295 01b6 0E94 0000 		call __subsf3
 4296 01ba 9B01      		movw r18,r22
 4297 01bc AC01      		movw r20,r24
 4298 01be C601      		movw r24,r12
 4299 01c0 B501      		movw r22,r10
 4300 01c2 0E94 0000 		call __gtsf2
 4301 01c6 1816      		cp __zero_reg__,r24
 4302 01c8 04F4      		brge .L397
 4303 01ca C801      		movw r24,r16
 4304 01cc B701      		movw r22,r14
 4305 01ce 20E0      		ldi r18,lo8(0x40000000)
 4306 01d0 30E0      		ldi r19,hi8(0x40000000)
 4307 01d2 40E0      		ldi r20,hlo8(0x40000000)
 4308 01d4 50E4      		ldi r21,hhi8(0x40000000)
 4309 01d6 0E94 0000 		call __addsf3
 4310 01da 9B01      		movw r18,r22
 4311 01dc AC01      		movw r20,r24
 4312 01de C601      		movw r24,r12
 4313 01e0 B501      		movw r22,r10
 4314 01e2 0E94 0000 		call __ltsf2
 4315 01e6 8823      		tst r24
 4316 01e8 04F4      		brge .L397
 4317               	.LSM290:
 4318 01ea 21E0      		ldi r18,lo8(1)
 4319 01ec 30E0      		ldi r19,hi8(1)
 4320 01ee 3093 0000 		sts (upgrade)+1,r19
 4321 01f2 2093 0000 		sts upgrade,r18
 4322               	.LSM291:
 4323 01f6 8091 0000 		lds r24,scoreCounter
 4324 01fa 9091 0000 		lds r25,(scoreCounter)+1
 4325 01fe 0396      		adiw r24,3
 4326 0200 9093 0000 		sts (scoreCounter)+1,r25
 4327 0204 8093 0000 		sts scoreCounter,r24
 4328               	.LSM292:
 4329 0208 3093 0000 		sts (held)+1,r19
 4330 020c 2093 0000 		sts held,r18
 4331               	.L397:
 4332               	.LSM293:
 4333 0210 8091 0000 		lds r24,upgrade
 4334 0214 9091 0000 		lds r25,(upgrade)+1
 4335 0218 0197      		sbiw r24,1
 4336 021a 01F0      		breq .+2
 4337 021c 00C0      		rjmp .L416
 4338               	.LSM294:
 4339 021e A090 0000 		lds r10,sprite+13
 4340 0222 B090 0000 		lds r11,(sprite+13)+1
 4341 0226 C090 0000 		lds r12,(sprite+13)+2
 4342 022a D090 0000 		lds r13,(sprite+13)+3
 4343 022e C601      		movw r24,r12
 4344 0230 B501      		movw r22,r10
 4345 0232 20E0      		ldi r18,lo8(0x3f800000)
 4346 0234 30E0      		ldi r19,hi8(0x3f800000)
 4347 0236 40E8      		ldi r20,hlo8(0x3f800000)
 4348 0238 5FE3      		ldi r21,hhi8(0x3f800000)
 4349 023a 0E94 0000 		call __eqsf2
 4350 023e 8823      		tst r24
 4351 0240 01F4      		brne .L425
 4352               	.LSM295:
 4353 0242 80E0      		ldi r24,lo8(bitswordside)
 4354 0244 90E0      		ldi r25,hi8(bitswordside)
 4355 0246 9093 0000 		sts (sword+11)+1,r25
 4356 024a 8093 0000 		sts sword+11,r24
 4357               	.LSM296:
 4358 024e 6091 0000 		lds r22,sprite
 4359 0252 7091 0000 		lds r23,(sprite)+1
 4360 0256 8091 0000 		lds r24,(sprite)+2
 4361 025a 9091 0000 		lds r25,(sprite)+3
 4362 025e 20E0      		ldi r18,lo8(0x40400000)
 4363 0260 30E0      		ldi r19,hi8(0x40400000)
 4364 0262 40E4      		ldi r20,hlo8(0x40400000)
 4365 0264 50E4      		ldi r21,hhi8(0x40400000)
 4366 0266 0E94 0000 		call __addsf3
 4367 026a 00C0      		rjmp .L427
 4368               	.L425:
 4369               	.LSM297:
 4370 026c C601      		movw r24,r12
 4371 026e B501      		movw r22,r10
 4372 0270 20E0      		ldi r18,lo8(0xbf800000)
 4373 0272 30E0      		ldi r19,hi8(0xbf800000)
 4374 0274 40E8      		ldi r20,hlo8(0xbf800000)
 4375 0276 5FEB      		ldi r21,hhi8(0xbf800000)
 4376 0278 0E94 0000 		call __eqsf2
 4377 027c 8823      		tst r24
 4378 027e 01F4      		brne .L410
 4379               	.LSM298:
 4380 0280 80E0      		ldi r24,lo8(bitswordside)
 4381 0282 90E0      		ldi r25,hi8(bitswordside)
 4382 0284 9093 0000 		sts (sword+11)+1,r25
 4383 0288 8093 0000 		sts sword+11,r24
 4384               	.LSM299:
 4385 028c 6091 0000 		lds r22,sprite
 4386 0290 7091 0000 		lds r23,(sprite)+1
 4387 0294 8091 0000 		lds r24,(sprite)+2
 4388 0298 9091 0000 		lds r25,(sprite)+3
 4389 029c 20E0      		ldi r18,lo8(0x40400000)
 4390 029e 30E0      		ldi r19,hi8(0x40400000)
 4391 02a0 40E4      		ldi r20,hlo8(0x40400000)
 4392 02a2 50E4      		ldi r21,hhi8(0x40400000)
 4393 02a4 0E94 0000 		call __subsf3
 4394               	.L427:
 4395 02a8 6093 0000 		sts sword,r22
 4396 02ac 7093 0000 		sts (sword)+1,r23
 4397 02b0 8093 0000 		sts (sword)+2,r24
 4398 02b4 9093 0000 		sts (sword)+3,r25
 4399               	.LSM300:
 4400 02b8 8091 0000 		lds r24,sprite+4
 4401 02bc 9091 0000 		lds r25,(sprite+4)+1
 4402 02c0 A091 0000 		lds r26,(sprite+4)+2
 4403 02c4 B091 0000 		lds r27,(sprite+4)+3
 4404 02c8 8093 0000 		sts sword+4,r24
 4405 02cc 9093 0000 		sts (sword+4)+1,r25
 4406 02d0 A093 0000 		sts (sword+4)+2,r26
 4407 02d4 B093 0000 		sts (sword+4)+3,r27
 4408               	.L410:
 4409               	.LSM301:
 4410 02d8 E090 0000 		lds r14,sprite+17
 4411 02dc F090 0000 		lds r15,(sprite+17)+1
 4412 02e0 0091 0000 		lds r16,(sprite+17)+2
 4413 02e4 1091 0000 		lds r17,(sprite+17)+3
 4414 02e8 C801      		movw r24,r16
 4415 02ea B701      		movw r22,r14
 4416 02ec 20E0      		ldi r18,lo8(0x3f800000)
 4417 02ee 30E0      		ldi r19,hi8(0x3f800000)
 4418 02f0 40E8      		ldi r20,hlo8(0x3f800000)
 4419 02f2 5FE3      		ldi r21,hhi8(0x3f800000)
 4420 02f4 0E94 0000 		call __eqsf2
 4421 02f8 8823      		tst r24
 4422 02fa 01F4      		brne .L426
 4423               	.LSM302:
 4424 02fc 80E0      		ldi r24,lo8(bitsword)
 4425 02fe 90E0      		ldi r25,hi8(bitsword)
 4426 0300 9093 0000 		sts (sword+11)+1,r25
 4427 0304 8093 0000 		sts sword+11,r24
 4428               	.LSM303:
 4429 0308 6091 0000 		lds r22,sprite+4
 4430 030c 7091 0000 		lds r23,(sprite+4)+1
 4431 0310 8091 0000 		lds r24,(sprite+4)+2
 4432 0314 9091 0000 		lds r25,(sprite+4)+3
 4433 0318 20E0      		ldi r18,lo8(0x40400000)
 4434 031a 30E0      		ldi r19,hi8(0x40400000)
 4435 031c 40E4      		ldi r20,hlo8(0x40400000)
 4436 031e 50E4      		ldi r21,hhi8(0x40400000)
 4437 0320 0E94 0000 		call __addsf3
 4438 0324 00C0      		rjmp .L428
 4439               	.L426:
 4440               	.LSM304:
 4441 0326 C801      		movw r24,r16
 4442 0328 B701      		movw r22,r14
 4443 032a 20E0      		ldi r18,lo8(0xbf800000)
 4444 032c 30E0      		ldi r19,hi8(0xbf800000)
 4445 032e 40E8      		ldi r20,hlo8(0xbf800000)
 4446 0330 5FEB      		ldi r21,hhi8(0xbf800000)
 4447 0332 0E94 0000 		call __eqsf2
 4448 0336 8823      		tst r24
 4449 0338 01F4      		brne .L414
 4450               	.LSM305:
 4451 033a 80E0      		ldi r24,lo8(bitsword)
 4452 033c 90E0      		ldi r25,hi8(bitsword)
 4453 033e 9093 0000 		sts (sword+11)+1,r25
 4454 0342 8093 0000 		sts sword+11,r24
 4455               	.LSM306:
 4456 0346 6091 0000 		lds r22,sprite+4
 4457 034a 7091 0000 		lds r23,(sprite+4)+1
 4458 034e 8091 0000 		lds r24,(sprite+4)+2
 4459 0352 9091 0000 		lds r25,(sprite+4)+3
 4460 0356 20E0      		ldi r18,lo8(0x40400000)
 4461 0358 30E0      		ldi r19,hi8(0x40400000)
 4462 035a 40E4      		ldi r20,hlo8(0x40400000)
 4463 035c 50E4      		ldi r21,hhi8(0x40400000)
 4464 035e 0E94 0000 		call __subsf3
 4465               	.L428:
 4466 0362 6093 0000 		sts sword+4,r22
 4467 0366 7093 0000 		sts (sword+4)+1,r23
 4468 036a 8093 0000 		sts (sword+4)+2,r24
 4469 036e 9093 0000 		sts (sword+4)+3,r25
 4470               	.LSM307:
 4471 0372 8091 0000 		lds r24,sprite
 4472 0376 9091 0000 		lds r25,(sprite)+1
 4473 037a A091 0000 		lds r26,(sprite)+2
 4474 037e B091 0000 		lds r27,(sprite)+3
 4475 0382 8093 0000 		sts sword,r24
 4476 0386 9093 0000 		sts (sword)+1,r25
 4477 038a A093 0000 		sts (sword)+2,r26
 4478 038e B093 0000 		sts (sword)+3,r27
 4479               	.L414:
 4480               	.LSM308:
 4481 0392 A092 0000 		sts sword+13,r10
 4482 0396 B092 0000 		sts (sword+13)+1,r11
 4483 039a C092 0000 		sts (sword+13)+2,r12
 4484 039e D092 0000 		sts (sword+13)+3,r13
 4485               	.LSM309:
 4486 03a2 E092 0000 		sts sword+17,r14
 4487 03a6 F092 0000 		sts (sword+17)+1,r15
 4488 03aa 0093 0000 		sts (sword+17)+2,r16
 4489 03ae 1093 0000 		sts (sword+17)+3,r17
 4490               	.L416:
 4491               	/* epilogue start */
 4492               	.LSM310:
 4493 03b2 DF91      		pop r29
 4494 03b4 CF91      		pop r28
 4495 03b6 1F91      		pop r17
 4496 03b8 0F91      		pop r16
 4497 03ba FF90      		pop r15
 4498 03bc EF90      		pop r14
 4499 03be DF90      		pop r13
 4500 03c0 CF90      		pop r12
 4501 03c2 BF90      		pop r11
 4502 03c4 AF90      		pop r10
 4503 03c6 0895      		ret
 4504               	.LFE16:
 4506               		.section	.text.update_bomb,"ax",@progbits
 4507               	.global	update_bomb
 4509               	update_bomb:
 4510               	.LFB15:
 4511               	.LSM311:
 4512 0000 AF92      		push r10
 4513 0002 BF92      		push r11
 4514 0004 CF92      		push r12
 4515 0006 DF92      		push r13
 4516 0008 EF92      		push r14
 4517 000a FF92      		push r15
 4518 000c 0F93      		push r16
 4519 000e 1F93      		push r17
 4520               	/* prologue: function */
 4521               	/* frame size = 0 */
 4522               	.LSM312:
 4523 0010 A090 0000 		lds r10,sprite
 4524 0014 B090 0000 		lds r11,(sprite)+1
 4525 0018 C090 0000 		lds r12,(sprite)+2
 4526 001c D090 0000 		lds r13,(sprite)+3
 4527 0020 E090 0000 		lds r14,bomb
 4528 0024 F090 0000 		lds r15,(bomb)+1
 4529 0028 0091 0000 		lds r16,(bomb)+2
 4530 002c 1091 0000 		lds r17,(bomb)+3
 4531 0030 C801      		movw r24,r16
 4532 0032 B701      		movw r22,r14
 4533 0034 20E0      		ldi r18,lo8(0x3f800000)
 4534 0036 30E0      		ldi r19,hi8(0x3f800000)
 4535 0038 40E8      		ldi r20,hlo8(0x3f800000)
 4536 003a 5FE3      		ldi r21,hhi8(0x3f800000)
 4537 003c 0E94 0000 		call __subsf3
 4538 0040 9B01      		movw r18,r22
 4539 0042 AC01      		movw r20,r24
 4540 0044 C601      		movw r24,r12
 4541 0046 B501      		movw r22,r10
 4542 0048 0E94 0000 		call __gtsf2
 4543 004c 1816      		cp __zero_reg__,r24
 4544 004e 04F0      		brlt .+2
 4545 0050 00C0      		rjmp .L430
 4546 0052 C801      		movw r24,r16
 4547 0054 B701      		movw r22,r14
 4548 0056 20E0      		ldi r18,lo8(0x40000000)
 4549 0058 30E0      		ldi r19,hi8(0x40000000)
 4550 005a 40E0      		ldi r20,hlo8(0x40000000)
 4551 005c 50E4      		ldi r21,hhi8(0x40000000)
 4552 005e 0E94 0000 		call __addsf3
 4553 0062 9B01      		movw r18,r22
 4554 0064 AC01      		movw r20,r24
 4555 0066 C601      		movw r24,r12
 4556 0068 B501      		movw r22,r10
 4557 006a 0E94 0000 		call __ltsf2
 4558 006e 8823      		tst r24
 4559 0070 04F0      		brlt .+2
 4560 0072 00C0      		rjmp .L430
 4561 0074 A090 0000 		lds r10,sprite+4
 4562 0078 B090 0000 		lds r11,(sprite+4)+1
 4563 007c C090 0000 		lds r12,(sprite+4)+2
 4564 0080 D090 0000 		lds r13,(sprite+4)+3
 4565 0084 E090 0000 		lds r14,bomb+4
 4566 0088 F090 0000 		lds r15,(bomb+4)+1
 4567 008c 0091 0000 		lds r16,(bomb+4)+2
 4568 0090 1091 0000 		lds r17,(bomb+4)+3
 4569 0094 C801      		movw r24,r16
 4570 0096 B701      		movw r22,r14
 4571 0098 20E0      		ldi r18,lo8(0x3f800000)
 4572 009a 30E0      		ldi r19,hi8(0x3f800000)
 4573 009c 40E8      		ldi r20,hlo8(0x3f800000)
 4574 009e 5FE3      		ldi r21,hhi8(0x3f800000)
 4575 00a0 0E94 0000 		call __subsf3
 4576 00a4 9B01      		movw r18,r22
 4577 00a6 AC01      		movw r20,r24
 4578 00a8 C601      		movw r24,r12
 4579 00aa B501      		movw r22,r10
 4580 00ac 0E94 0000 		call __gtsf2
 4581 00b0 1816      		cp __zero_reg__,r24
 4582 00b2 04F4      		brge .L430
 4583 00b4 C801      		movw r24,r16
 4584 00b6 B701      		movw r22,r14
 4585 00b8 20E0      		ldi r18,lo8(0x40000000)
 4586 00ba 30E0      		ldi r19,hi8(0x40000000)
 4587 00bc 40E0      		ldi r20,hlo8(0x40000000)
 4588 00be 50E4      		ldi r21,hhi8(0x40000000)
 4589 00c0 0E94 0000 		call __addsf3
 4590 00c4 9B01      		movw r18,r22
 4591 00c6 AC01      		movw r20,r24
 4592 00c8 C601      		movw r24,r12
 4593 00ca B501      		movw r22,r10
 4594 00cc 0E94 0000 		call __ltsf2
 4595 00d0 8823      		tst r24
 4596 00d2 04F4      		brge .L430
 4597               	.LSM313:
 4598 00d4 82E0      		ldi r24,lo8(2)
 4599 00d6 90E0      		ldi r25,hi8(2)
 4600 00d8 9093 0000 		sts (active)+1,r25
 4601 00dc 8093 0000 		sts active,r24
 4602               	.LSM314:
 4603 00e0 80E0      		ldi r24,lo8(0xc1200000)
 4604 00e2 90E0      		ldi r25,hi8(0xc1200000)
 4605 00e4 A0E2      		ldi r26,hlo8(0xc1200000)
 4606 00e6 B1EC      		ldi r27,hhi8(0xc1200000)
 4607 00e8 8093 0000 		sts bomb,r24
 4608 00ec 9093 0000 		sts (bomb)+1,r25
 4609 00f0 A093 0000 		sts (bomb)+2,r26
 4610 00f4 B093 0000 		sts (bomb)+3,r27
 4611               	.LSM315:
 4612 00f8 8093 0000 		sts bomb+4,r24
 4613 00fc 9093 0000 		sts (bomb+4)+1,r25
 4614 0100 A093 0000 		sts (bomb+4)+2,r26
 4615 0104 B093 0000 		sts (bomb+4)+3,r27
 4616               	.L430:
 4617               	.LSM316:
 4618 0108 8091 0000 		lds r24,active
 4619 010c 9091 0000 		lds r25,(active)+1
 4620 0110 0297      		sbiw r24,2
 4621 0112 04F0      		brlt .L435
 4622               	.LSM317:
 4623 0114 8FE6      		ldi r24,lo8(111)
 4624 0116 64E0      		ldi r22,lo8(4)
 4625 0118 43E1      		ldi r20,lo8(19)
 4626 011a 0E94 0000 		call draw_character
 4627               	.L435:
 4628               	.LSM318:
 4629 011e 8091 0000 		lds r24,active
 4630 0122 9091 0000 		lds r25,(active)+1
 4631 0126 0297      		sbiw r24,2
 4632 0128 01F4      		brne .L436
 4633               	.LSM319:
 4634 012a 8091 0000 		lds r24,jumpingCount
 4635 012e 9091 0000 		lds r25,(jumpingCount)+1
 4636 0132 0997      		sbiw r24,9
 4637 0134 04F0      		brlt .L436
 4638               	.LSM320:
 4639 0136 8091 0000 		lds r24,sprite
 4640 013a 9091 0000 		lds r25,(sprite)+1
 4641 013e A091 0000 		lds r26,(sprite)+2
 4642 0142 B091 0000 		lds r27,(sprite)+3
 4643 0146 8093 0000 		sts bomb,r24
 4644 014a 9093 0000 		sts (bomb)+1,r25
 4645 014e A093 0000 		sts (bomb)+2,r26
 4646 0152 B093 0000 		sts (bomb)+3,r27
 4647               	.LSM321:
 4648 0156 8091 0000 		lds r24,sprite+4
 4649 015a 9091 0000 		lds r25,(sprite+4)+1
 4650 015e A091 0000 		lds r26,(sprite+4)+2
 4651 0162 B091 0000 		lds r27,(sprite+4)+3
 4652 0166 8093 0000 		sts bomb+4,r24
 4653 016a 9093 0000 		sts (bomb+4)+1,r25
 4654 016e A093 0000 		sts (bomb+4)+2,r26
 4655 0172 B093 0000 		sts (bomb+4)+3,r27
 4656               	.LSM322:
 4657 0176 81E0      		ldi r24,lo8(1)
 4658 0178 90E0      		ldi r25,hi8(1)
 4659 017a 9093 0000 		sts (active)+1,r25
 4660 017e 8093 0000 		sts active,r24
 4661               	.L436:
 4662               	.LSM323:
 4663 0182 8091 0000 		lds r24,active
 4664 0186 9091 0000 		lds r25,(active)+1
 4665 018a 0197      		sbiw r24,1
 4666 018c 01F0      		breq .+2
 4667 018e 00C0      		rjmp .L444
 4668               	.LSM324:
 4669 0190 8091 0000 		lds r24,jumpingCount
 4670 0194 9091 0000 		lds r25,(jumpingCount)+1
 4671 0198 892B      		or r24,r25
 4672 019a 01F4      		brne .L438
 4673               	.LSM325:
 4674 019c 80E0      		ldi r24,lo8(bitexplosion)
 4675 019e 90E0      		ldi r25,hi8(bitexplosion)
 4676 01a0 9093 0000 		sts (bomb+11)+1,r25
 4677 01a4 8093 0000 		sts bomb+11,r24
 4678               	.LSM326:
 4679 01a8 8AE0      		ldi r24,lo8(10)
 4680 01aa 8093 0000 		sts bomb+8,r24
 4681               	.LSM327:
 4682 01ae 8093 0000 		sts bomb+9,r24
 4683               	.LSM328:
 4684 01b2 6091 0000 		lds r22,bomb
 4685 01b6 7091 0000 		lds r23,(bomb)+1
 4686 01ba 8091 0000 		lds r24,(bomb)+2
 4687 01be 9091 0000 		lds r25,(bomb)+3
 4688 01c2 20E0      		ldi r18,lo8(0x3f800000)
 4689 01c4 30E0      		ldi r19,hi8(0x3f800000)
 4690 01c6 40E8      		ldi r20,hlo8(0x3f800000)
 4691 01c8 5FE3      		ldi r21,hhi8(0x3f800000)
 4692 01ca 0E94 0000 		call __subsf3
 4693 01ce 6093 0000 		sts bomb,r22
 4694 01d2 7093 0000 		sts (bomb)+1,r23
 4695 01d6 8093 0000 		sts (bomb)+2,r24
 4696 01da 9093 0000 		sts (bomb)+3,r25
 4697               	.LSM329:
 4698 01de 6091 0000 		lds r22,bomb+4
 4699 01e2 7091 0000 		lds r23,(bomb+4)+1
 4700 01e6 8091 0000 		lds r24,(bomb+4)+2
 4701 01ea 9091 0000 		lds r25,(bomb+4)+3
 4702 01ee 20E0      		ldi r18,lo8(0x3f800000)
 4703 01f0 30E0      		ldi r19,hi8(0x3f800000)
 4704 01f2 40E8      		ldi r20,hlo8(0x3f800000)
 4705 01f4 5FE3      		ldi r21,hhi8(0x3f800000)
 4706 01f6 0E94 0000 		call __subsf3
 4707 01fa 6093 0000 		sts bomb+4,r22
 4708 01fe 7093 0000 		sts (bomb+4)+1,r23
 4709 0202 8093 0000 		sts (bomb+4)+2,r24
 4710 0206 9093 0000 		sts (bomb+4)+3,r25
 4711               	.LSM330:
 4712 020a 85E0      		ldi r24,lo8(5)
 4713 020c 90E0      		ldi r25,hi8(5)
 4714 020e 9093 0000 		sts (explosionTime)+1,r25
 4715 0212 8093 0000 		sts explosionTime,r24
 4716               	.L438:
 4717               	.LSM331:
 4718 0216 8091 0000 		lds r24,explosionTime
 4719 021a 9091 0000 		lds r25,(explosionTime)+1
 4720 021e 892B      		or r24,r25
 4721 0220 01F0      		breq .+2
 4722 0222 00C0      		rjmp .L444
 4723               	.LSM332:
 4724 0224 1092 0000 		sts (active)+1,__zero_reg__
 4725 0228 1092 0000 		sts active,__zero_reg__
 4726               	.LSM333:
 4727 022c 80E0      		ldi r24,lo8(bitbomb)
 4728 022e 90E0      		ldi r25,hi8(bitbomb)
 4729 0230 9093 0000 		sts (bomb+11)+1,r25
 4730 0234 8093 0000 		sts bomb+11,r24
 4731               	.LSM334:
 4732 0238 83E0      		ldi r24,lo8(3)
 4733 023a 8093 0000 		sts bomb+8,r24
 4734               	.LSM335:
 4735 023e 8093 0000 		sts bomb+9,r24
 4736               	.LSM336:
 4737 0242 4091 0000 		lds r20,clockCounter
 4738 0246 5091 0000 		lds r21,(clockCounter)+1
 4739 024a 2091 0000 		lds r18,seedcount
 4740 024e 3091 0000 		lds r19,(seedcount)+1
 4741 0252 8091 0000 		lds r24,globalCounter
 4742 0256 9091 0000 		lds r25,(globalCounter)+1
 4743 025a BC01      		movw r22,r24
 4744 025c 629F      		mul r22,r18
 4745 025e C001      		movw r24,r0
 4746 0260 639F      		mul r22,r19
 4747 0262 900D      		add r25,r0
 4748 0264 729F      		mul r23,r18
 4749 0266 900D      		add r25,r0
 4750 0268 1124      		clr r1
 4751 026a 840F      		add r24,r20
 4752 026c 951F      		adc r25,r21
 4753 026e 0E94 0000 		call srand
 4754               	.LSM337:
 4755 0272 8DE2      		ldi r24,lo8(45)
 4756 0274 90E0      		ldi r25,hi8(45)
 4757 0276 9093 0000 		sts (grePosX)+1,r25
 4758 027a 8093 0000 		sts grePosX,r24
 4759               	.LSM338:
 4760 027e 86E1      		ldi r24,lo8(22)
 4761 0280 90E0      		ldi r25,hi8(22)
 4762 0282 9093 0000 		sts (grePosY)+1,r25
 4763 0286 8093 0000 		sts grePosY,r24
 4764 028a 00C0      		rjmp .L439
 4765               	.L441:
 4766               	.LSM339:
 4767 028c 0E94 0000 		call rand
 4768 0290 6CE3      		ldi r22,lo8(60)
 4769 0292 70E0      		ldi r23,hi8(60)
 4770 0294 0E94 0000 		call __divmodhi4
 4771 0298 4296      		adiw r24,18
 4772 029a 9093 0000 		sts (grePosX)+1,r25
 4773 029e 8093 0000 		sts grePosX,r24
 4774               	.L439:
 4775               	.LSM340:
 4776 02a2 8091 0000 		lds r24,grePosX
 4777 02a6 9091 0000 		lds r25,(grePosX)+1
 4778 02aa 8497      		sbiw r24,36
 4779 02ac 04F0      		brlt .L449
 4780 02ae 8091 0000 		lds r24,grePosX
 4781 02b2 9091 0000 		lds r25,(grePosX)+1
 4782 02b6 C797      		sbiw r24,55
 4783 02b8 04F0      		brlt .L441
 4784 02ba 00C0      		rjmp .L449
 4785               	.L443:
 4786               	.LSM341:
 4787 02bc 0E94 0000 		call rand
 4788 02c0 6EE1      		ldi r22,lo8(30)
 4789 02c2 70E0      		ldi r23,hi8(30)
 4790 02c4 0E94 0000 		call __divmodhi4
 4791 02c8 0296      		adiw r24,2
 4792 02ca 9093 0000 		sts (grePosY)+1,r25
 4793 02ce 8093 0000 		sts grePosY,r24
 4794               	.L449:
 4795               	.LSM342:
 4796 02d2 8091 0000 		lds r24,grePosY
 4797 02d6 9091 0000 		lds r25,(grePosY)+1
 4798 02da 0D97      		sbiw r24,13
 4799 02dc 04F0      		brlt .L442
 4800 02de 8091 0000 		lds r24,grePosY
 4801 02e2 9091 0000 		lds r25,(grePosY)+1
 4802 02e6 4797      		sbiw r24,23
 4803 02e8 04F0      		brlt .L443
 4804               	.L442:
 4805               	.LSM343:
 4806 02ea 6091 0000 		lds r22,grePosX
 4807 02ee 7091 0000 		lds r23,(grePosX)+1
 4808 02f2 8827      		clr r24
 4809 02f4 77FD      		sbrc r23,7
 4810 02f6 8095      		com r24
 4811 02f8 982F      		mov r25,r24
 4812 02fa 0E94 0000 		call __floatsisf
 4813 02fe 6093 0000 		sts bomb,r22
 4814 0302 7093 0000 		sts (bomb)+1,r23
 4815 0306 8093 0000 		sts (bomb)+2,r24
 4816 030a 9093 0000 		sts (bomb)+3,r25
 4817               	.LSM344:
 4818 030e 6091 0000 		lds r22,grePosY
 4819 0312 7091 0000 		lds r23,(grePosY)+1
 4820 0316 8827      		clr r24
 4821 0318 77FD      		sbrc r23,7
 4822 031a 8095      		com r24
 4823 031c 982F      		mov r25,r24
 4824 031e 0E94 0000 		call __floatsisf
 4825 0322 6093 0000 		sts bomb+4,r22
 4826 0326 7093 0000 		sts (bomb+4)+1,r23
 4827 032a 8093 0000 		sts (bomb+4)+2,r24
 4828 032e 9093 0000 		sts (bomb+4)+3,r25
 4829               	.L444:
 4830               	/* epilogue start */
 4831               	.LSM345:
 4832 0332 1F91      		pop r17
 4833 0334 0F91      		pop r16
 4834 0336 FF90      		pop r15
 4835 0338 EF90      		pop r14
 4836 033a DF90      		pop r13
 4837 033c CF90      		pop r12
 4838 033e BF90      		pop r11
 4839 0340 AF90      		pop r10
 4840 0342 0895      		ret
 4841               	.LFE15:
 4843               		.data
 4844               	.LC0:
 4845 0000 2564 00   		.string	"%d"
 4846               		.section	.text.__vector_23,"ax",@progbits
 4847               	.global	__vector_23
 4849               	__vector_23:
 4850               	.LFB26:
 4851               	.LSM346:
 4852 0000 1F92      		push __zero_reg__
 4853 0002 0F92      		push r0
 4854 0004 0FB6      		in r0,__SREG__
 4855 0006 0F92      		push r0
 4856 0008 1124      		clr __zero_reg__
 4857 000a FF92      		push r15
 4858 000c 0F93      		push r16
 4859 000e 1F93      		push r17
 4860 0010 2F93      		push r18
 4861 0012 3F93      		push r19
 4862 0014 4F93      		push r20
 4863 0016 5F93      		push r21
 4864 0018 6F93      		push r22
 4865 001a 7F93      		push r23
 4866 001c 8F93      		push r24
 4867 001e 9F93      		push r25
 4868 0020 AF93      		push r26
 4869 0022 BF93      		push r27
 4870 0024 EF93      		push r30
 4871 0026 FF93      		push r31
 4872 0028 DF93      		push r29
 4873 002a CF93      		push r28
 4874 002c CDB7      		in r28,__SP_L__
 4875 002e DEB7      		in r29,__SP_H__
 4876 0030 2F97      		sbiw r28,15
 4877 0032 DEBF      		out __SP_H__,r29
 4878 0034 CDBF      		out __SP_L__,r28
 4879               	/* prologue: Signal */
 4880               	/* frame size = 15 */
 4881               	.LSM347:
 4882 0036 8091 0000 		lds r24,gameOver
 4883 003a 9091 0000 		lds r25,(gameOver)+1
 4884 003e 892B      		or r24,r25
 4885 0040 01F0      		breq .+2
 4886 0042 00C0      		rjmp .L462
 4887               	.LSM348:
 4888 0044 8091 0000 		lds r24,stage
 4889 0048 9091 0000 		lds r25,(stage)+1
 4890 004c 0197      		sbiw r24,1
 4891 004e 01F0      		breq .+2
 4892 0050 00C0      		rjmp .L462
 4893               	.LBB18:
 4894               	.LSM349:
 4895 0052 0E94 0000 		call refresh
 4896               	.LSM350:
 4897 0056 A89A      		sbi 53-32,0
 4898               	.LSM351:
 4899 0058 8091 0000 		lds r24,clockCounter
 4900 005c 9091 0000 		lds r25,(clockCounter)+1
 4901 0060 0196      		adiw r24,1
 4902 0062 9093 0000 		sts (clockCounter)+1,r25
 4903 0066 8093 0000 		sts clockCounter,r24
 4904               	.LSM352:
 4905 006a 8091 0000 		lds r24,clockCounter
 4906 006e 9091 0000 		lds r25,(clockCounter)+1
 4907 0072 0397      		sbiw r24,3
 4908 0074 04F4      		brge .+2
 4909 0076 00C0      		rjmp .L452
 4910               	.LSM353:
 4911 0078 8091 0000 		lds r24,jumpingCount
 4912 007c 9091 0000 		lds r25,(jumpingCount)+1
 4913 0080 0197      		sbiw r24,1
 4914 0082 9093 0000 		sts (jumpingCount)+1,r25
 4915 0086 8093 0000 		sts jumpingCount,r24
 4916               	.LSM354:
 4917 008a 8091 0000 		lds r24,explosionTime
 4918 008e 9091 0000 		lds r25,(explosionTime)+1
 4919 0092 0197      		sbiw r24,1
 4920 0094 9093 0000 		sts (explosionTime)+1,r25
 4921 0098 8093 0000 		sts explosionTime,r24
 4922               	.LSM355:
 4923 009c 0E94 0000 		call clear
 4924               	.LSM356:
 4925 00a0 8091 0000 		lds r24,globalCounter
 4926 00a4 9091 0000 		lds r25,(globalCounter)+1
 4927 00a8 0196      		adiw r24,1
 4928 00aa 9093 0000 		sts (globalCounter)+1,r25
 4929 00ae 8093 0000 		sts globalCounter,r24
 4930               	.LSM357:
 4931 00b2 8091 0000 		lds r24,globalCounter
 4932 00b6 9091 0000 		lds r25,(globalCounter)+1
 4933 00ba 4497      		sbiw r24,20
 4934 00bc 01F4      		brne .L453
 4935               	.LSM358:
 4936 00be 8091 0000 		lds r24,scoreCounter
 4937 00c2 9091 0000 		lds r25,(scoreCounter)+1
 4938 00c6 0196      		adiw r24,1
 4939 00c8 9093 0000 		sts (scoreCounter)+1,r25
 4940 00cc 8093 0000 		sts scoreCounter,r24
 4941               	.LSM359:
 4942 00d0 1092 0000 		sts (globalCounter)+1,__zero_reg__
 4943 00d4 1092 0000 		sts globalCounter,__zero_reg__
 4944               	.L453:
 4945 00d8 00E0      		ldi r16,lo8(0)
 4946 00da 10E0      		ldi r17,hi8(0)
 4947               	.LVL48:
 4948 00dc FF24      		clr r15
 4949 00de 00C0      		rjmp .L454
 4950               	.L455:
 4951               	.LBB19:
 4952               	.LSM360:
 4953 00e0 0F5F      		subi r16,lo8(-(1))
 4954 00e2 1F4F      		sbci r17,hi8(-(1))
 4955 00e4 80E2      		ldi r24,lo8(32)
 4956 00e6 64E0      		ldi r22,lo8(4)
 4957 00e8 4F2D      		mov r20,r15
 4958 00ea 0E94 0000 		call draw_character
 4959               	.LSM361:
 4960 00ee 4F2D      		mov r20,r15
 4961 00f0 4650      		subi r20,lo8(-(-6))
 4962 00f2 8AE2      		ldi r24,lo8(42)
 4963 00f4 64E0      		ldi r22,lo8(4)
 4964 00f6 0E94 0000 		call draw_character
 4965               	.L454:
 4966               	.LSM362:
 4967 00fa 8091 0000 		lds r24,lives
 4968 00fe 9091 0000 		lds r25,(lives)+1
 4969 0102 26E0      		ldi r18,lo8(6)
 4970 0104 F20E      		add r15,r18
 4971 0106 0817      		cp r16,r24
 4972 0108 1907      		cpc r17,r25
 4973 010a 04F0      		brlt .L455
 4974               	.LBE19:
 4975               	.LSM363:
 4976 010c 8091 0000 		lds r24,items
 4977 0110 9091 0000 		lds r25,(items)+1
 4978 0114 0197      		sbiw r24,1
 4979 0116 01F4      		brne .L456
 4980               	.LSM364:
 4981 0118 8FE6      		ldi r24,lo8(111)
 4982 011a 00C0      		rjmp .L464
 4983               	.L456:
 4984               	.LSM365:
 4985 011c 8091 0000 		lds r24,items
 4986 0120 9091 0000 		lds r25,(items)+1
 4987 0124 892B      		or r24,r25
 4988 0126 01F4      		brne .L457
 4989               	.LSM366:
 4990 0128 80E2      		ldi r24,lo8(32)
 4991               	.L464:
 4992 012a 64E0      		ldi r22,lo8(4)
 4993 012c 43E1      		ldi r20,lo8(19)
 4994 012e 0E94 0000 		call draw_character
 4995               	.L457:
 4996               	.LSM367:
 4997 0132 8091 0000 		lds r24,upgrade
 4998 0136 9091 0000 		lds r25,(upgrade)+1
 4999 013a 0197      		sbiw r24,1
 5000 013c 01F4      		brne .L458
 5001               	.LSM368:
 5002 013e 8CE7      		ldi r24,lo8(124)
 5003 0140 00C0      		rjmp .L465
 5004               	.L458:
 5005               	.LSM369:
 5006 0142 8091 0000 		lds r24,upgrade
 5007 0146 9091 0000 		lds r25,(upgrade)+1
 5008 014a 892B      		or r24,r25
 5009 014c 01F4      		brne .L459
 5010               	.LSM370:
 5011 014e 80E2      		ldi r24,lo8(32)
 5012               	.L465:
 5013 0150 64E0      		ldi r22,lo8(4)
 5014 0152 4CE1      		ldi r20,lo8(28)
 5015 0154 0E94 0000 		call draw_character
 5016               	.L459:
 5017               	.LSM371:
 5018 0158 8EE0      		ldi r24,lo8(14)
 5019 015a 60E0      		ldi r22,lo8(0)
 5020 015c 4EE0      		ldi r20,lo8(14)
 5021 015e 2FE2      		ldi r18,lo8(47)
 5022 0160 0E94 0000 		call draw_line
 5023               	.LSM372:
 5024 0164 83E5      		ldi r24,lo8(83)
 5025 0166 60E0      		ldi r22,lo8(0)
 5026 0168 43E5      		ldi r20,lo8(83)
 5027 016a 2FE2      		ldi r18,lo8(47)
 5028 016c 0E94 0000 		call draw_line
 5029               	.LSM373:
 5030 0170 8EE0      		ldi r24,lo8(14)
 5031 0172 60E0      		ldi r22,lo8(0)
 5032 0174 43E5      		ldi r20,lo8(83)
 5033 0176 20E0      		ldi r18,lo8(0)
 5034 0178 0E94 0000 		call draw_line
 5035               	.LSM374:
 5036 017c 8EE0      		ldi r24,lo8(14)
 5037 017e 6FE2      		ldi r22,lo8(47)
 5038 0180 43E5      		ldi r20,lo8(83)
 5039 0182 2FE2      		ldi r18,lo8(47)
 5040 0184 0E94 0000 		call draw_line
 5041               	.LSM375:
 5042 0188 0E94 0000 		call draw_pit
 5043               	.LSM376:
 5044 018c 1092 0000 		sts (clockCounter)+1,__zero_reg__
 5045 0190 1092 0000 		sts clockCounter,__zero_reg__
 5046               	.LSM377:
 5047 0194 8091 0000 		lds r24,lives
 5048 0198 9091 0000 		lds r25,(lives)+1
 5049 019c 1816      		cp __zero_reg__,r24
 5050 019e 1906      		cpc __zero_reg__,r25
 5051 01a0 04F0      		brlt .L460
 5052               	.LSM378:
 5053 01a2 81E0      		ldi r24,lo8(1)
 5054 01a4 90E0      		ldi r25,hi8(1)
 5055 01a6 9093 0000 		sts (gameOver)+1,r25
 5056 01aa 8093 0000 		sts gameOver,r24
 5057               	.L460:
 5058               	.LSM379:
 5059 01ae 8091 0000 		lds r24,gameOverCount
 5060 01b2 9091 0000 		lds r25,(gameOverCount)+1
 5061 01b6 1816      		cp __zero_reg__,r24
 5062 01b8 1906      		cpc __zero_reg__,r25
 5063 01ba 04F0      		brlt .L452
 5064               	.LSM380:
 5065 01bc 82E0      		ldi r24,lo8(2)
 5066 01be 90E0      		ldi r25,hi8(2)
 5067 01c0 9093 0000 		sts (gameOver)+1,r25
 5068 01c4 8093 0000 		sts gameOver,r24
 5069               	.L452:
 5070               	.LSM381:
 5071 01c8 80E0      		ldi r24,lo8(sprite)
 5072 01ca 90E0      		ldi r25,hi8(sprite)
 5073 01cc 0E94 0000 		call update_sprite
 5074               	.LSM382:
 5075 01d0 0E94 0000 		call update_weapon
 5076               	.LSM383:
 5077 01d4 0E94 0000 		call update_bomb
 5078 01d8 00E0      		ldi r16,lo8(zombies)
 5079 01da 10E0      		ldi r17,hi8(zombies)
 5080               	.LVL49:
 5081               	.L461:
 5082               	.LBB20:
 5083               	.LSM384:
 5084 01dc C801      		movw r24,r16
 5085 01de 0E94 0000 		call pit_collision
 5086 01e2 0B5E      		subi r16,lo8(-(21))
 5087 01e4 1F4F      		sbci r17,hi8(-(21))
 5088               	.LSM385:
 5089 01e6 80E0      		ldi r24,hi8(zombies+168)
 5090 01e8 0030      		cpi r16,lo8(zombies+168)
 5091 01ea 1807      		cpc r17,r24
 5092 01ec 01F4      		brne .L461
 5093               	.LBE20:
 5094               	.LSM386:
 5095 01ee 0E94 0000 		call z_stage_collision
 5096               	.LSM387:
 5097 01f2 0E94 0000 		call hero_collision
 5098               	.LSM388:
 5099 01f6 80E0      		ldi r24,lo8(sprite)
 5100 01f8 90E0      		ldi r25,hi8(sprite)
 5101 01fa 0E94 0000 		call stage_collision
 5102               	.LSM389:
 5103 01fe 80E0      		ldi r24,lo8(sprite)
 5104 0200 90E0      		ldi r25,hi8(sprite)
 5105 0202 0E94 0000 		call draw_sprite
 5106               	.LSM390:
 5107 0206 80E0      		ldi r24,lo8(sword)
 5108 0208 90E0      		ldi r25,hi8(sword)
 5109 020a 0E94 0000 		call draw_sprite
 5110               	.LSM391:
 5111 020e 80E0      		ldi r24,lo8(bomb)
 5112 0210 90E0      		ldi r25,hi8(bomb)
 5113 0212 0E94 0000 		call draw_sprite
 5114               	.LSM392:
 5115 0216 0E94 0000 		call draw_stage
 5116               	.LSM393:
 5117 021a 8091 0000 		lds r24,cooldown
 5118 021e 9091 0000 		lds r25,(cooldown)+1
 5119 0222 0197      		sbiw r24,1
 5120 0224 9093 0000 		sts (cooldown)+1,r25
 5121 0228 8093 0000 		sts cooldown,r24
 5122               	.LSM394:
 5123 022c 0E94 0000 		call update_zombies
 5124               	.LSM395:
 5125 0230 0E94 0000 		call check_collison
 5126               	.LSM396:
 5127 0234 2091 0000 		lds r18,scoreCounter
 5128 0238 3091 0000 		lds r19,(scoreCounter)+1
 5129 023c 00D0      		rcall .
 5130 023e 00D0      		rcall .
 5131 0240 00D0      		rcall .
 5132 0242 EDB7      		in r30,__SP_L__
 5133 0244 FEB7      		in r31,__SP_H__
 5134 0246 3196      		adiw r30,1
 5135 0248 8E01      		movw r16,r28
 5136 024a 0F5F      		subi r16,lo8(-(1))
 5137 024c 1F4F      		sbci r17,hi8(-(1))
 5138 024e ADB7      		in r26,__SP_L__
 5139 0250 BEB7      		in r27,__SP_H__
 5140 0252 1296      		adiw r26,1+1
 5141 0254 1C93      		st X,r17
 5142 0256 0E93      		st -X,r16
 5143 0258 1197      		sbiw r26,1
 5144 025a 80E0      		ldi r24,lo8(.LC0)
 5145 025c 90E0      		ldi r25,hi8(.LC0)
 5146 025e 9383      		std Z+3,r25
 5147 0260 8283      		std Z+2,r24
 5148 0262 3583      		std Z+5,r19
 5149 0264 2483      		std Z+4,r18
 5150 0266 0E94 0000 		call sprintf
 5151               	.LSM397:
 5152 026a 8DB7      		in r24,__SP_L__
 5153 026c 9EB7      		in r25,__SP_H__
 5154 026e 0696      		adiw r24,6
 5155 0270 0FB6      		in __tmp_reg__,__SREG__
 5156 0272 F894      		cli
 5157 0274 9EBF      		out __SP_H__,r25
 5158 0276 0FBE      		out __SREG__,__tmp_reg__
 5159 0278 8DBF      		out __SP_L__,r24
 5160 027a C801      		movw r24,r16
 5161 027c 60E0      		ldi r22,lo8(0)
 5162 027e 47E2      		ldi r20,lo8(39)
 5163 0280 0E94 0000 		call draw_string
 5164               	.LSM398:
 5165 0284 0E94 0000 		call refresh
 5166               	.L462:
 5167               	/* epilogue start */
 5168               	.LBE18:
 5169               	.LSM399:
 5170 0288 2F96      		adiw r28,15
 5171 028a DEBF      		out __SP_H__,r29
 5172 028c CDBF      		out __SP_L__,r28
 5173 028e CF91      		pop r28
 5174 0290 DF91      		pop r29
 5175 0292 FF91      		pop r31
 5176 0294 EF91      		pop r30
 5177 0296 BF91      		pop r27
 5178 0298 AF91      		pop r26
 5179 029a 9F91      		pop r25
 5180 029c 8F91      		pop r24
 5181 029e 7F91      		pop r23
 5182 02a0 6F91      		pop r22
 5183 02a2 5F91      		pop r21
 5184 02a4 4F91      		pop r20
 5185 02a6 3F91      		pop r19
 5186 02a8 2F91      		pop r18
 5187 02aa 1F91      		pop r17
 5188 02ac 0F91      		pop r16
 5189 02ae FF90      		pop r15
 5190 02b0 0F90      		pop r0
 5191 02b2 0FBE      		out __SREG__,r0
 5192 02b4 0F90      		pop r0
 5193 02b6 1F90      		pop __zero_reg__
 5194 02b8 1895      		reti
 5195               	.LFE26:
 5197               		.section	.text.Init,"ax",@progbits
 5198               	.global	Init
 5200               	Init:
 5201               	.LFB9:
 5202               	.LSM400:
 5203               	/* prologue: function */
 5204               	/* frame size = 0 */
 5205               	.LSM401:
 5206 0000 84B1      		in r24,36-32
 5207 0002 8C60      		ori r24,lo8(12)
 5208 0004 84B9      		out 36-32,r24
 5209               	.LSM402:
 5210 0006 84B1      		in r24,36-32
 5211 0008 8C7F      		andi r24,lo8(-4)
 5212 000a 84B9      		out 36-32,r24
 5213               	.LSM403:
 5214 000c 15B8      		out 37-32,__zero_reg__
 5215               	.LSM404:
 5216 000e 8FE3      		ldi r24,lo8(63)
 5217 0010 0E94 0000 		call LCDInitialise
 5218               	.LSM405:
 5219 0014 0E94 0000 		call clear
 5220               	.LSM406:
 5221 0018 0E94 0000 		call refresh
 5222               	/* epilogue start */
 5223               	.LSM407:
 5224 001c 0895      		ret
 5225               	.LFE9:
 5227               		.data
 5228               	.LC1:
 5229 0003 4741 4D45 		.string	"GAME OVER!"
 5229      204F 5645 
 5229      5221 00
 5230               	.LC2:
 5231 000e 594F 5520 		.string	"YOU WIN!"
 5231      5749 4E21 
 5231      00
 5232               		.section	.text.main,"ax",@progbits
 5233               	.global	main
 5235               	main:
 5236               	.LFB8:
 5237               	.LSM408:
 5238 0000 BF92      		push r11
 5239 0002 CF92      		push r12
 5240 0004 DF92      		push r13
 5241 0006 EF92      		push r14
 5242 0008 FF92      		push r15
 5243 000a 0F93      		push r16
 5244 000c 1F93      		push r17
 5245 000e CF93      		push r28
 5246 0010 DF93      		push r29
 5247               	/* prologue: function */
 5248               	/* frame size = 0 */
 5249               	.LSM409:
 5250 0012 80E8      		ldi r24,lo8(-128)
 5251 0014 8093 6100 		sts 97,r24
 5252 0018 11E0      		ldi r17,lo8(1)
 5253 001a 1093 6100 		sts 97,r17
 5254               	.LSM410:
 5255 001e 0E94 0000 		call Init
 5256               	.LSM411:
 5257 0022 0E94 0000 		call PinChangeInit
 5258               	.LSM412:
 5259 0026 0E94 0000 		call title_screen
 5260               	.LSM413:
 5261 002a 0E94 0000 		call TimerInit
 5262               	.LSM414:
 5263 002e 0E94 0000 		call clear
 5264               	.LSM415:
 5265 0032 80E0      		ldi r24,lo8(sprite)
 5266 0034 90E0      		ldi r25,hi8(sprite)
 5267 0036 6FE2      		ldi r22,lo8(47)
 5268 0038 48E1      		ldi r20,lo8(24)
 5269 003a 23E0      		ldi r18,lo8(3)
 5270 003c 03E0      		ldi r16,lo8(3)
 5271 003e A0E0      		ldi r26,lo8(bithero)
 5272 0040 EA2E      		mov r14,r26
 5273 0042 A0E0      		ldi r26,hi8(bithero)
 5274 0044 FA2E      		mov r15,r26
 5275 0046 0E94 0000 		call init_sprite
 5276               	.LSM416:
 5277 004a 1093 0000 		sts sprite+10,r17
 5278               	.LSM417:
 5279 004e 80E0      		ldi r24,lo8(0xbf800000)
 5280 0050 90E0      		ldi r25,hi8(0xbf800000)
 5281 0052 A0E8      		ldi r26,hlo8(0xbf800000)
 5282 0054 BFEB      		ldi r27,hhi8(0xbf800000)
 5283 0056 8093 0000 		sts sprite+13,r24
 5284 005a 9093 0000 		sts (sprite+13)+1,r25
 5285 005e A093 0000 		sts (sprite+13)+2,r26
 5286 0062 B093 0000 		sts (sprite+13)+3,r27
 5287               	.LSM418:
 5288 0066 80E0      		ldi r24,lo8(sprite)
 5289 0068 90E0      		ldi r25,hi8(sprite)
 5290 006a 0E94 0000 		call draw_sprite
 5291 006e C0E0      		ldi r28,lo8(zombies)
 5292 0070 D0E0      		ldi r29,hi8(zombies)
 5293 0072 CC24      		clr r12
 5294 0074 DD24      		clr r13
 5295               	.LVL50:
 5296               	.LBB21:
 5297               	.LBB22:
 5298               	.LSM419:
 5299 0076 BB24      		clr r11
 5300 0078 B394      		inc r11
 5301               	.L473:
 5302               	.LSM420:
 5303 007a 8091 0000 		lds r24,pincount
 5304 007e 9091 0000 		lds r25,(pincount)+1
 5305 0082 2091 0000 		lds r18,seedcount
 5306 0086 3091 0000 		lds r19,(seedcount)+1
 5307 008a AC01      		movw r20,r24
 5308 008c 249F      		mul r18,r20
 5309 008e C001      		movw r24,r0
 5310 0090 259F      		mul r18,r21
 5311 0092 900D      		add r25,r0
 5312 0094 349F      		mul r19,r20
 5313 0096 900D      		add r25,r0
 5314 0098 1124      		clr r1
 5315 009a 9C01      		movw r18,r24
 5316 009c 2C9D      		mul r18,r12
 5317 009e C001      		movw r24,r0
 5318 00a0 2D9D      		mul r18,r13
 5319 00a2 900D      		add r25,r0
 5320 00a4 3C9D      		mul r19,r12
 5321 00a6 900D      		add r25,r0
 5322 00a8 1124      		clr r1
 5323 00aa 0E94 0000 		call srand
 5324 00ae 0DE2      		ldi r16,lo8(45)
 5325 00b0 10E0      		ldi r17,hi8(45)
 5326               	.LVL51:
 5327 00b2 00C0      		rjmp .L469
 5328               	.L470:
 5329               	.LSM421:
 5330 00b4 0E94 0000 		call rand
 5331 00b8 66E4      		ldi r22,lo8(70)
 5332 00ba 70E0      		ldi r23,hi8(70)
 5333 00bc 0E94 0000 		call __divmodhi4
 5334 00c0 8C01      		movw r16,r24
 5335 00c2 0E5E      		subi r16,lo8(-(18))
 5336 00c4 1F4F      		sbci r17,hi8(-(18))
 5337               	.LSM422:
 5338 00c6 8091 0000 		lds r24,seedcount
 5339 00ca 9091 0000 		lds r25,(seedcount)+1
 5340 00ce 0196      		adiw r24,1
 5341 00d0 9093 0000 		sts (seedcount)+1,r25
 5342 00d4 8093 0000 		sts seedcount,r24
 5343               	.L469:
 5344               	.LSM423:
 5345 00d8 C801      		movw r24,r16
 5346 00da 8497      		sbiw r24,36
 5347 00dc 4397      		sbiw r24,19
 5348 00de 00F0      		brlo .L470
 5349 00e0 46E1      		ldi r20,lo8(22)
 5350 00e2 50E0      		ldi r21,hi8(22)
 5351               	.LVL52:
 5352 00e4 00C0      		rjmp .L471
 5353               	.L472:
 5354               	.LSM424:
 5355 00e6 0E94 0000 		call rand
 5356               	.LVL53:
 5357 00ea 6EE1      		ldi r22,lo8(30)
 5358 00ec 70E0      		ldi r23,hi8(30)
 5359 00ee 0E94 0000 		call __divmodhi4
 5360 00f2 AC01      		movw r20,r24
 5361               	.LVL54:
 5362 00f4 4E5F      		subi r20,lo8(-(2))
 5363 00f6 5F4F      		sbci r21,hi8(-(2))
 5364               	.LSM425:
 5365 00f8 8091 0000 		lds r24,seedcount
 5366 00fc 9091 0000 		lds r25,(seedcount)+1
 5367 0100 0196      		adiw r24,1
 5368 0102 9093 0000 		sts (seedcount)+1,r25
 5369 0106 8093 0000 		sts seedcount,r24
 5370               	.L471:
 5371               	.LSM426:
 5372 010a CA01      		movw r24,r20
 5373 010c 0D97      		sbiw r24,13
 5374 010e 0A97      		sbiw r24,10
 5375 0110 00F0      		brlo .L472
 5376               	.LSM427:
 5377 0112 8091 0000 		lds r24,swit
 5378 0116 9091 0000 		lds r25,(swit)+1
 5379 011a A091 0000 		lds r26,(swit)+2
 5380 011e B091 0000 		lds r27,(swit)+3
 5381 0122 B058      		subi r27,0x80
 5382 0124 8093 0000 		sts swit,r24
 5383 0128 9093 0000 		sts (swit)+1,r25
 5384 012c A093 0000 		sts (swit)+2,r26
 5385 0130 B093 0000 		sts (swit)+3,r27
 5386               	.LSM428:
 5387 0134 CE01      		movw r24,r28
 5388 0136 602F      		mov r22,r16
 5389 0138 23E0      		ldi r18,lo8(3)
 5390 013a 03E0      		ldi r16,lo8(3)
 5391               	.LVL55:
 5392 013c F0E0      		ldi r31,lo8(bitzom)
 5393 013e EF2E      		mov r14,r31
 5394 0140 F0E0      		ldi r31,hi8(bitzom)
 5395 0142 FF2E      		mov r15,r31
 5396 0144 0E94 0000 		call init_sprite
 5397               	.LVL56:
 5398               	.LSM429:
 5399 0148 BA86      		std Y+10,r11
 5400               	.LSM430:
 5401 014a 8091 0000 		lds r24,swit
 5402 014e 9091 0000 		lds r25,(swit)+1
 5403 0152 A091 0000 		lds r26,(swit)+2
 5404 0156 B091 0000 		lds r27,(swit)+3
 5405 015a B058      		subi r27,0x80
 5406 015c 8D87      		std Y+13,r24
 5407 015e 9E87      		std Y+14,r25
 5408 0160 AF87      		std Y+15,r26
 5409 0162 B88B      		std Y+16,r27
 5410               	.LSM431:
 5411 0164 8091 0000 		lds r24,swit
 5412 0168 9091 0000 		lds r25,(swit)+1
 5413 016c A091 0000 		lds r26,(swit)+2
 5414 0170 B091 0000 		lds r27,(swit)+3
 5415 0174 898B      		std Y+17,r24
 5416 0176 9A8B      		std Y+18,r25
 5417 0178 AB8B      		std Y+19,r26
 5418 017a BC8B      		std Y+20,r27
 5419               	.LSM432:
 5420 017c CE01      		movw r24,r28
 5421 017e 0E94 0000 		call draw_sprite
 5422               	.LSM433:
 5423 0182 8091 0000 		lds r24,seedcount
 5424 0186 9091 0000 		lds r25,(seedcount)+1
 5425 018a 0196      		adiw r24,1
 5426 018c 9093 0000 		sts (seedcount)+1,r25
 5427 0190 8093 0000 		sts seedcount,r24
 5428               	.LBE22:
 5429               	.LSM434:
 5430 0194 0894      		sec
 5431 0196 C11C      		adc r12,__zero_reg__
 5432 0198 D11C      		adc r13,__zero_reg__
 5433 019a 6596      		adiw r28,21
 5434 019c 38E0      		ldi r19,lo8(8)
 5435 019e C316      		cp r12,r19
 5436 01a0 D104      		cpc r13,__zero_reg__
 5437 01a2 01F0      		breq .+2
 5438 01a4 00C0      		rjmp .L473
 5439               	.LBE21:
 5440               	.LSM435:
 5441 01a6 6091 0000 		lds r22,sprite
 5442 01aa 7091 0000 		lds r23,(sprite)+1
 5443 01ae 8091 0000 		lds r24,(sprite)+2
 5444 01b2 9091 0000 		lds r25,(sprite)+3
 5445 01b6 0E94 0000 		call __fixunssfsi
 5446 01ba 7B01      		movw r14,r22
 5447 01bc 8C01      		movw r16,r24
 5448 01be 6091 0000 		lds r22,sprite+4
 5449 01c2 7091 0000 		lds r23,(sprite+4)+1
 5450 01c6 8091 0000 		lds r24,(sprite+4)+2
 5451 01ca 9091 0000 		lds r25,(sprite+4)+3
 5452 01ce 20E0      		ldi r18,lo8(0x40400000)
 5453 01d0 30E0      		ldi r19,hi8(0x40400000)
 5454 01d2 40E4      		ldi r20,hlo8(0x40400000)
 5455 01d4 50E4      		ldi r21,hhi8(0x40400000)
 5456 01d6 0E94 0000 		call __subsf3
 5457 01da 0E94 0000 		call __fixunssfsi
 5458 01de 9B01      		movw r18,r22
 5459 01e0 AC01      		movw r20,r24
 5460 01e2 80E0      		ldi r24,lo8(sword)
 5461 01e4 90E0      		ldi r25,hi8(sword)
 5462 01e6 6E2D      		mov r22,r14
 5463 01e8 422F      		mov r20,r18
 5464 01ea 23E0      		ldi r18,lo8(3)
 5465 01ec 03E0      		ldi r16,lo8(3)
 5466 01ee E0E0      		ldi r30,lo8(bitsword)
 5467 01f0 EE2E      		mov r14,r30
 5468 01f2 E0E0      		ldi r30,hi8(bitsword)
 5469 01f4 FE2E      		mov r15,r30
 5470 01f6 0E94 0000 		call init_sprite
 5471               	.LSM436:
 5472 01fa B092 0000 		sts sword+10,r11
 5473               	.LSM437:
 5474 01fe 8091 0000 		lds r24,sprite+13
 5475 0202 9091 0000 		lds r25,(sprite+13)+1
 5476 0206 A091 0000 		lds r26,(sprite+13)+2
 5477 020a B091 0000 		lds r27,(sprite+13)+3
 5478 020e 8093 0000 		sts sword+13,r24
 5479 0212 9093 0000 		sts (sword+13)+1,r25
 5480 0216 A093 0000 		sts (sword+13)+2,r26
 5481 021a B093 0000 		sts (sword+13)+3,r27
 5482               	.LSM438:
 5483 021e 8091 0000 		lds r24,sprite+17
 5484 0222 9091 0000 		lds r25,(sprite+17)+1
 5485 0226 A091 0000 		lds r26,(sprite+17)+2
 5486 022a B091 0000 		lds r27,(sprite+17)+3
 5487 022e 8093 0000 		sts sword+17,r24
 5488 0232 9093 0000 		sts (sword+17)+1,r25
 5489 0236 A093 0000 		sts (sword+17)+2,r26
 5490 023a B093 0000 		sts (sword+17)+3,r27
 5491               	.LSM439:
 5492 023e 80E0      		ldi r24,lo8(sword)
 5493 0240 90E0      		ldi r25,hi8(sword)
 5494 0242 0E94 0000 		call draw_sprite
 5495               	.LSM440:
 5496 0246 6091 0000 		lds r22,grePosX
 5497 024a 7091 0000 		lds r23,(grePosX)+1
 5498 024e 4091 0000 		lds r20,grePosY
 5499 0252 5091 0000 		lds r21,(grePosY)+1
 5500 0256 80E0      		ldi r24,lo8(bomb)
 5501 0258 90E0      		ldi r25,hi8(bomb)
 5502 025a 23E0      		ldi r18,lo8(3)
 5503 025c 70E0      		ldi r23,lo8(bitbomb)
 5504 025e E72E      		mov r14,r23
 5505 0260 70E0      		ldi r23,hi8(bitbomb)
 5506 0262 F72E      		mov r15,r23
 5507 0264 0E94 0000 		call init_sprite
 5508               	.LSM441:
 5509 0268 B092 0000 		sts bomb+10,r11
 5510               	.LSM442:
 5511 026c 80E0      		ldi r24,lo8(bomb)
 5512 026e 90E0      		ldi r25,hi8(bomb)
 5513 0270 0E94 0000 		call draw_sprite
 5514               	.L474:
 5515               	.LSM443:
 5516 0274 8091 0000 		lds r24,gameOver
 5517 0278 9091 0000 		lds r25,(gameOver)+1
 5518 027c 892B      		or r24,r25
 5519 027e 01F0      		breq .L474
 5520               	.LSM444:
 5521 0280 0E94 0000 		call clear
 5522               	.LSM445:
 5523 0284 8091 0000 		lds r24,gameOver
 5524 0288 9091 0000 		lds r25,(gameOver)+1
 5525 028c 0197      		sbiw r24,1
 5526 028e 01F4      		brne .L475
 5527               	.LSM446:
 5528 0290 80E0      		ldi r24,lo8(.LC1)
 5529 0292 90E0      		ldi r25,hi8(.LC1)
 5530 0294 61E1      		ldi r22,lo8(17)
 5531 0296 43E1      		ldi r20,lo8(19)
 5532 0298 0E94 0000 		call draw_string
 5533               	.L475:
 5534               	.LSM447:
 5535 029c 8091 0000 		lds r24,gameOver
 5536 02a0 9091 0000 		lds r25,(gameOver)+1
 5537 02a4 0297      		sbiw r24,2
 5538 02a6 01F4      		brne .L476
 5539               	.LSM448:
 5540 02a8 80E0      		ldi r24,lo8(.LC2)
 5541 02aa 90E0      		ldi r25,hi8(.LC2)
 5542 02ac 61E1      		ldi r22,lo8(17)
 5543 02ae 43E1      		ldi r20,lo8(19)
 5544 02b0 0E94 0000 		call draw_string
 5545               	.L476:
 5546               	.LSM449:
 5547 02b4 0E94 0000 		call refresh
 5548               	.LSM450:
 5549 02b8 80E0      		ldi r24,lo8(0)
 5550 02ba 90E0      		ldi r25,hi8(0)
 5551               	/* epilogue start */
 5552 02bc DF91      		pop r29
 5553 02be CF91      		pop r28
 5554 02c0 1F91      		pop r17
 5555 02c2 0F91      		pop r16
 5556 02c4 FF90      		pop r15
 5557 02c6 EF90      		pop r14
 5558 02c8 DF90      		pop r13
 5559 02ca CF90      		pop r12
 5560               	.LVL57:
 5561 02cc BF90      		pop r11
 5562 02ce 0895      		ret
 5563               	.LFE8:
 5565               	.global	border1
 5566               		.data
 5569               	border1:
 5570 0017 00        		.byte	0
 5571 0018 00        		.byte	0
 5572 0019 98        		.byte	-104
 5573 001a 41        		.byte	65
 5574 001b 00        		.byte	0
 5575 001c 00        		.byte	0
 5576 001d A0        		.byte	-96
 5577 001e 41        		.byte	65
 5578 001f 00        		.byte	0
 5579 0020 00        		.byte	0
 5580 0021 18        		.byte	24
 5581 0022 42        		.byte	66
 5582 0023 00        		.byte	0
 5583 0024 00        		.byte	0
 5584 0025 A0        		.byte	-96
 5585 0026 41        		.byte	65
 5586               	.global	border2
 5589               	border2:
 5590 0027 00        		.byte	0
 5591 0028 00        		.byte	0
 5592 0029 18        		.byte	24
 5593 002a 42        		.byte	66
 5594 002b 00        		.byte	0
 5595 002c 00        		.byte	0
 5596 002d A0        		.byte	-96
 5597 002e 41        		.byte	65
 5598 002f 00        		.byte	0
 5599 0030 00        		.byte	0
 5600 0031 18        		.byte	24
 5601 0032 42        		.byte	66
 5602 0033 00        		.byte	0
 5603 0034 00        		.byte	0
 5604 0035 24        		.byte	36
 5605 0036 42        		.byte	66
 5606               	.global	border3
 5609               	border3:
 5610 0037 00        		.byte	0
 5611 0038 00        		.byte	0
 5612 0039 2C        		.byte	44
 5613 003a 42        		.byte	66
 5614 003b 00        		.byte	0
 5615 003c 00        		.byte	0
 5616 003d F0        		.byte	-16
 5617 003e 41        		.byte	65
 5618 003f 00        		.byte	0
 5619 0040 00        		.byte	0
 5620 0041 70        		.byte	112
 5621 0042 42        		.byte	66
 5622 0043 00        		.byte	0
 5623 0044 00        		.byte	0
 5624 0045 F0        		.byte	-16
 5625 0046 41        		.byte	65
 5626               	.global	border4
 5629               	border4:
 5630 0047 00        		.byte	0
 5631 0048 00        		.byte	0
 5632 0049 92        		.byte	-110
 5633 004a 42        		.byte	66
 5634 004b 00        		.byte	0
 5635 004c 00        		.byte	0
 5636 004d 20        		.byte	32
 5637 004e 41        		.byte	65
 5638 004f 00        		.byte	0
 5639 0050 00        		.byte	0
 5640 0051 A6        		.byte	-90
 5641 0052 42        		.byte	66
 5642 0053 00        		.byte	0
 5643 0054 00        		.byte	0
 5644 0055 20        		.byte	32
 5645 0056 41        		.byte	65
 5646               	.global	border5
 5649               	border5:
 5650 0057 00        		.byte	0
 5651 0058 00        		.byte	0
 5652 0059 92        		.byte	-110
 5653 005a 42        		.byte	66
 5654 005b 00        		.byte	0
 5655 005c 00        		.byte	0
 5656 005d A0        		.byte	-96
 5657 005e 41        		.byte	65
 5658 005f 00        		.byte	0
 5659 0060 00        		.byte	0
 5660 0061 A6        		.byte	-90
 5661 0062 42        		.byte	66
 5662 0063 00        		.byte	0
 5663 0064 00        		.byte	0
 5664 0065 A0        		.byte	-96
 5665 0066 41        		.byte	65
 5666               	.global	border6
 5669               	border6:
 5670 0067 00        		.byte	0
 5671 0068 00        		.byte	0
 5672 0069 92        		.byte	-110
 5673 006a 42        		.byte	66
 5674 006b 00        		.byte	0
 5675 006c 00        		.byte	0
 5676 006d F0        		.byte	-16
 5677 006e 41        		.byte	65
 5678 006f 00        		.byte	0
 5679 0070 00        		.byte	0
 5680 0071 A6        		.byte	-90
 5681 0072 42        		.byte	66
 5682 0073 00        		.byte	0
 5683 0074 00        		.byte	0
 5684 0075 F0        		.byte	-16
 5685 0076 41        		.byte	65
 5686               	.global	border7
 5689               	border7:
 5690 0077 00        		.byte	0
 5691 0078 00        		.byte	0
 5692 0079 92        		.byte	-110
 5693 007a 42        		.byte	66
 5694 007b 00        		.byte	0
 5695 007c 00        		.byte	0
 5696 007d 20        		.byte	32
 5697 007e 42        		.byte	66
 5698 007f 00        		.byte	0
 5699 0080 00        		.byte	0
 5700 0081 A6        		.byte	-90
 5701 0082 42        		.byte	66
 5702 0083 00        		.byte	0
 5703 0084 00        		.byte	0
 5704 0085 20        		.byte	32
 5705 0086 42        		.byte	66
 5706               	.global	border8
 5709               	border8:
 5710 0087 00        		.byte	0
 5711 0088 00        		.byte	0
 5712 0089 50        		.byte	80
 5713 008a 42        		.byte	66
 5714 008b 00        		.byte	0
 5715 008c 00        		.byte	0
 5716 008d 20        		.byte	32
 5717 008e 42        		.byte	66
 5718 008f 00        		.byte	0
 5719 0090 00        		.byte	0
 5720 0091 82        		.byte	-126
 5721 0092 42        		.byte	66
 5722 0093 00        		.byte	0
 5723 0094 00        		.byte	0
 5724 0095 20        		.byte	32
 5725 0096 42        		.byte	66
 5726               	.global	newPosX
 5727               	.global	newPosX
 5728               		.section .bss
 5731               	newPosX:
 5732 0000 0000      		.skip 2,0
 5733               	.global	newPosY
 5734               	.global	newPosY
 5737               	newPosY:
 5738 0002 0000      		.skip 2,0
 5739               	.global	grePosX
 5740               		.data
 5743               	grePosX:
 5744 0097 1E00      		.word	30
 5745               	.global	grePosY
 5748               	grePosY:
 5749 0099 1E00      		.word	30
 5750               	.global	upgrade
 5751               	.global	upgrade
 5752               		.section .bss
 5755               	upgrade:
 5756 0004 0000      		.skip 2,0
 5757               	.global	held
 5758               	.global	held
 5761               	held:
 5762 0006 0000      		.skip 2,0
 5763               	.global	active
 5764               	.global	active
 5767               	active:
 5768 0008 0000      		.skip 2,0
 5769               	.global	jumpingCount
 5770               		.data
 5773               	jumpingCount:
 5774 009b FFFF      		.word	-1
 5775               	.global	explosionTime
 5778               	explosionTime:
 5779 009d 0500      		.word	5
 5780               	.global	cooldown
 5781               	.global	cooldown
 5782               		.section .bss
 5785               	cooldown:
 5786 000a 0000      		.skip 2,0
 5787               	.global	seedcount
 5788               		.data
 5791               	seedcount:
 5792 009f 0100      		.word	1
 5793               	.global	pincount
 5794               	.global	pincount
 5795               		.section .bss
 5798               	pincount:
 5799 000c 0000      		.skip 2,0
 5800               	.global	buttonPressed
 5801               	.global	buttonPressed
 5804               	buttonPressed:
 5805 000e 0000      		.skip 2,0
 5806               	.global	lives
 5807               		.data
 5810               	lives:
 5811 00a1 0300      		.word	3
 5812               	.global	pit_points
 5815               	pit_points:
 5816 00a3 1E00      		.word	30
 5817 00a5 0500      		.word	5
 5818 00a7 3200      		.word	50
 5819 00a9 0F00      		.word	15
 5820               	.global	gameOver
 5821               	.global	gameOver
 5822               		.section .bss
 5825               	gameOver:
 5826 0010 0000      		.skip 2,0
 5827               	.global	gameOverCount
 5828               		.data
 5831               	gameOverCount:
 5832 00ab 0800      		.word	8
 5833               	.global	globalCounter
 5834               	.global	globalCounter
 5835               		.section .bss
 5838               	globalCounter:
 5839 0012 0000      		.skip 2,0
 5840               	.global	scoreCounter
 5841               	.global	scoreCounter
 5844               	scoreCounter:
 5845 0014 0000      		.skip 2,0
 5846               	.global	clockCounter
 5847               	.global	clockCounter
 5850               	clockCounter:
 5851 0016 0000      		.skip 2,0
 5852               	.global	tagged
 5853               	.global	tagged
 5856               	tagged:
 5857 0018 0000      		.skip 2,0
 5858               	.global	swit
 5859               		.data
 5862               	swit:
 5863 00ad CD        		.byte	-51
 5864 00ae CC        		.byte	-52
 5865 00af CC        		.byte	-52
 5866 00b0 3D        		.byte	61
 5867               	.global	bithero
 5870               	bithero:
 5871 00b1 E0        		.byte	-32
 5872 00b2 A0        		.byte	-96
 5873 00b3 E0        		.byte	-32
 5874               	.global	bitzom
 5877               	bitzom:
 5878 00b4 E0        		.byte	-32
 5879 00b5 E0        		.byte	-32
 5880 00b6 E0        		.byte	-32
 5881               	.global	bitsword
 5884               	bitsword:
 5885 00b7 E0        		.byte	-32
 5886 00b8 40        		.byte	64
 5887 00b9 E0        		.byte	-32
 5888               	.global	bitswordside
 5891               	bitswordside:
 5892 00ba A0        		.byte	-96
 5893 00bb E0        		.byte	-32
 5894 00bc A0        		.byte	-96
 5895               	.global	bitbomb
 5898               	bitbomb:
 5899 00bd 40        		.byte	64
 5900 00be E0        		.byte	-32
 5901 00bf E0        		.byte	-32
 5902               	.global	bitexplosion
 5905               	bitexplosion:
 5906 00c0 4F        		.byte	79
 5907 00c1 FE        		.byte	-2
 5908 00c2 DE        		.byte	-34
 5909 00c3 7C        		.byte	124
 5910 00c4 7E        		.byte	126
 5911 00c5 FA        		.byte	-6
 5912 00c6 7F        		.byte	127
 5913 00c7 2E        		.byte	46
 5914               		.comm stage,2,1
 5915               		.comm choice,2,1
 5916               		.comm chosen,2,1
 5917               		.comm items,4,1
 5918               		.comm item_pos,8,1
 5919               		.comm sprite,21,1
 5920               		.comm zombies,168,1
 5921               		.comm sword,21,1
 5922               		.comm bomb,21,1
 6091               	.Letext0:
DEFINED SYMBOLS
                            *ABS*:00000000 zombiedash.c
C:\cygwin\tmp/ccvRpKlw.s:2      *ABS*:0000003f __SREG__
C:\cygwin\tmp/ccvRpKlw.s:3      *ABS*:0000003e __SP_H__
C:\cygwin\tmp/ccvRpKlw.s:4      *ABS*:0000003d __SP_L__
C:\cygwin\tmp/ccvRpKlw.s:5      *ABS*:00000034 __CCP__
C:\cygwin\tmp/ccvRpKlw.s:6      *ABS*:00000000 __tmp_reg__
C:\cygwin\tmp/ccvRpKlw.s:7      *ABS*:00000001 __zero_reg__
C:\cygwin\tmp/ccvRpKlw.s:19     .text.TimerInit:00000000 TimerInit
C:\cygwin\tmp/ccvRpKlw.s:60     .text.PinChangeInit:00000000 PinChangeInit
C:\cygwin\tmp/ccvRpKlw.s:101    .text.update_sprite:00000000 update_sprite
C:\cygwin\tmp/ccvRpKlw.s:324    .text.stage_collision:00000000 stage_collision
C:\cygwin\tmp/ccvRpKlw.s:5569   .data:00000017 border1
C:\cygwin\tmp/ccvRpKlw.s:5589   .data:00000027 border2
C:\cygwin\tmp/ccvRpKlw.s:5609   .data:00000037 border3
C:\cygwin\tmp/ccvRpKlw.s:5629   .data:00000047 border4
C:\cygwin\tmp/ccvRpKlw.s:5649   .data:00000057 border5
C:\cygwin\tmp/ccvRpKlw.s:5669   .data:00000067 border6
C:\cygwin\tmp/ccvRpKlw.s:5689   .data:00000077 border7
C:\cygwin\tmp/ccvRpKlw.s:5709   .data:00000087 border8
C:\cygwin\tmp/ccvRpKlw.s:1024   .text.z_stage_collision:00000000 z_stage_collision
                            *COM*:000000a8 zombies
C:\cygwin\tmp/ccvRpKlw.s:1749   .text.pit_collision:00000000 pit_collision
C:\cygwin\tmp/ccvRpKlw.s:5815   .data:000000a3 pit_points
C:\cygwin\tmp/ccvRpKlw.s:2301   .text.hero_collision:00000000 hero_collision
C:\cygwin\tmp/ccvRpKlw.s:5773   .data:0000009b jumpingCount
                            *COM*:00000015 sprite
C:\cygwin\tmp/ccvRpKlw.s:2323   .text.__vector_9:00000000 __vector_9
C:\cygwin\tmp/ccvRpKlw.s:5798   .bss:0000000c pincount
C:\cygwin\tmp/ccvRpKlw.s:5825   .bss:00000010 gameOver
                            *COM*:00000002 stage
                            *COM*:00000002 chosen
                            *COM*:00000002 choice
C:\cygwin\tmp/ccvRpKlw.s:5804   .bss:0000000e buttonPressed
C:\cygwin\tmp/ccvRpKlw.s:2689   .text.draw_stage:00000000 draw_stage
C:\cygwin\tmp/ccvRpKlw.s:3088   .text.draw_pit:00000000 draw_pit
C:\cygwin\tmp/ccvRpKlw.s:3141   .text.update_zombies:00000000 update_zombies
C:\cygwin\tmp/ccvRpKlw.s:3309   .text.reset_game:00000000 reset_game
C:\cygwin\tmp/ccvRpKlw.s:5850   .bss:00000016 clockCounter
C:\cygwin\tmp/ccvRpKlw.s:5838   .bss:00000012 globalCounter
C:\cygwin\tmp/ccvRpKlw.s:3470   .text.check_collison:00000000 check_collison
C:\cygwin\tmp/ccvRpKlw.s:5785   .bss:0000000a cooldown
C:\cygwin\tmp/ccvRpKlw.s:5810   .data:000000a1 lives
C:\cygwin\tmp/ccvRpKlw.s:5761   .bss:00000006 held
C:\cygwin\tmp/ccvRpKlw.s:5755   .bss:00000004 upgrade
C:\cygwin\tmp/ccvRpKlw.s:5831   .data:000000ab gameOverCount
                            *COM*:00000015 sword
C:\cygwin\tmp/ccvRpKlw.s:5844   .bss:00000014 scoreCounter
C:\cygwin\tmp/ccvRpKlw.s:5778   .data:0000009d explosionTime
                            *COM*:00000015 bomb
C:\cygwin\tmp/ccvRpKlw.s:3933   .text.sprite_angle_change:00000000 sprite_angle_change
C:\cygwin\tmp/ccvRpKlw.s:5791   .data:0000009f seedcount
C:\cygwin\tmp/ccvRpKlw.s:4104   .text.update_weapon:00000000 update_weapon
C:\cygwin\tmp/ccvRpKlw.s:5856   .bss:00000018 tagged
C:\cygwin\tmp/ccvRpKlw.s:5891   .data:000000ba bitswordside
C:\cygwin\tmp/ccvRpKlw.s:5884   .data:000000b7 bitsword
C:\cygwin\tmp/ccvRpKlw.s:4509   .text.update_bomb:00000000 update_bomb
C:\cygwin\tmp/ccvRpKlw.s:5767   .bss:00000008 active
C:\cygwin\tmp/ccvRpKlw.s:5905   .data:000000c0 bitexplosion
C:\cygwin\tmp/ccvRpKlw.s:5898   .data:000000bd bitbomb
C:\cygwin\tmp/ccvRpKlw.s:5743   .data:00000097 grePosX
C:\cygwin\tmp/ccvRpKlw.s:5748   .data:00000099 grePosY
C:\cygwin\tmp/ccvRpKlw.s:4849   .text.__vector_23:00000000 __vector_23
                            *COM*:00000004 items
C:\cygwin\tmp/ccvRpKlw.s:5200   .text.Init:00000000 Init
C:\cygwin\tmp/ccvRpKlw.s:5235   .text.main:00000000 main
C:\cygwin\tmp/ccvRpKlw.s:5870   .data:000000b1 bithero
C:\cygwin\tmp/ccvRpKlw.s:5862   .data:000000ad swit
C:\cygwin\tmp/ccvRpKlw.s:5877   .data:000000b4 bitzom
C:\cygwin\tmp/ccvRpKlw.s:5731   .bss:00000000 newPosX
C:\cygwin\tmp/ccvRpKlw.s:5737   .bss:00000002 newPosY
                            *COM*:00000008 item_pos

UNDEFINED SYMBOLS
__addsf3
__floatsisf
__gesf2
__subsf3
__ltsf2
__lesf2
__eqsf2
__gtsf2
draw_character
refresh
__fixunssfsi
draw_line
draw_sprite
srand
rand
__divmodhi4
__fixsfsi
clear
sprintf
draw_string
LCDInitialise
title_screen
init_sprite
__do_copy_data
__do_clear_bss
